(dp1
S'output'
p2
S'<class \'sqlite3.OperationalError\'> table "web2py_session_cs183_budget" already exists'
p3
sS'layer'
p4
S'C:\\Users\\justi\\Documents\\Work\\CS183\\web2py\\applications\\cs183_budget\\models\\db.py'
p5
sS'code'
p6
S'<code object <module> at 00000000055E65B0, file "C:\\Users\\justi\\Documents\\Work\\CS183\\web2py\\applications\\cs183_budget\\models\\db.py", line 6>'
p7
sS'snapshot'
p8
(dp9
S'exception'
p10
(dp11
S'__module__'
p12
S"'sqlite3'"
p13
sS'__getslice__'
p14
S"<method-wrapper '__getslice__' of OperationalError object>"
p15
sS'__str__'
p16
S"<method-wrapper '__str__' of OperationalError object>"
p17
sS'__reduce__'
p18
S'<built-in method __reduce__ of OperationalError object>'
p19
sS'__dict__'
p20
S'{}'
p21
sS'__sizeof__'
p22
S'<built-in method __sizeof__ of OperationalError object>'
p23
sS'__weakref__'
p24
S'None'
p25
sS'message'
p26
S'\'table "web2py_session_cs183_budget" already exists\''
p27
sS'__init__'
p28
S"<method-wrapper '__init__' of OperationalError object>"
p29
sS'__setattr__'
p30
S"<method-wrapper '__setattr__' of OperationalError object>"
p31
sS'__reduce_ex__'
p32
S'<built-in method __reduce_ex__ of OperationalError object>'
p33
sS'__new__'
p34
S'<built-in method __new__ of type object>'
p35
sS'__format__'
p36
S'<built-in method __format__ of OperationalError object>'
p37
sS'__class__'
p38
S"<class 'sqlite3.OperationalError'>"
p39
sS'__doc__'
p40
S'None'
p41
sS'__getitem__'
p42
S"<method-wrapper '__getitem__' of OperationalError object>"
p43
sS'__setstate__'
p44
S'<built-in method __setstate__ of OperationalError object>'
p45
sS'__getattribute__'
p46
S"<method-wrapper '__getattribute__' of OperationalError object>"
p47
sS'args'
p48
S'(\'table "web2py_session_cs183_budget" already exists\',)'
p49
sS'__subclasshook__'
p50
S'<built-in method __subclasshook__ of type object>'
p51
sS'__unicode__'
p52
S'<built-in method __unicode__ of OperationalError object>'
p53
sS'__delattr__'
p54
S"<method-wrapper '__delattr__' of OperationalError object>"
p55
sS'__repr__'
p56
S"<method-wrapper '__repr__' of OperationalError object>"
p57
sS'__hash__'
p58
S"<method-wrapper '__hash__' of OperationalError object>"
p59
ssS'evalue'
p60
S'table "web2py_session_cs183_budget" already exists'
p61
sS'request'
p62
cgluon.html
XML_unpickle
p63
(S'spr\x00\x00<div><table><tr><td style="font-weight:bold;vertical-align:top;">ajax</td><td style="vertical-align:top;">:</td><td><div>False</div></td></tr><tr><td style="font-weight:bold;vertical-align:top;">application</td><td style="vertical-align:top;">:</td><td><div>cs183_budget</div></td></tr><tr><td style="font-weight:bold;vertical-align:top;">args</td><td style="vertical-align:top;">:</td><td><div><table></table></div></td></tr><tr><td style="font-weight:bold;vertical-align:top;">cid</td><td style="vertical-align:top;">:</td><td><div>None</div></td></tr><tr><td style="font-weight:bold;vertical-align:top;">client</td><td style="vertical-align:top;">:</td><td><div>127.0.0.1</div></td></tr><tr><td style="font-weight:bold;vertical-align:top;">controller</td><td style="vertical-align:top;">:</td><td><div>default</div></td></tr><tr><td style="font-weight:bold;vertical-align:top;">cookies</td><td style="vertical-align:top;">:</td><td><div><table><tr><td style="font-weight:bold;vertical-align:top;">session_id_admin</td><td style="vertical-align:top;">:</td><td><div>127.0.0.1-aa3ce4b8-e416-4664-9d90-8c3b10b8a265<table><tr><td style="font-weight:bold;vertical-align:top;">comment</td><td style="vertical-align:top;">:</td><td><div></div></td></tr><tr><td style="font-weight:bold;vertical-align:top;">domain</td><td style="vertical-align:top;">:</td><td><div></div></td></tr><tr><td style="font-weight:bold;vertical-align:top;">expires</td><td style="vertical-align:top;">:</td><td><div></div></td></tr><tr><td style="font-weight:bold;vertical-align:top;">httponly</td><td style="vertical-align:top;">:</td><td><div></div></td></tr><tr><td style="font-weight:bold;vertical-align:top;">max-age</td><td style="vertical-align:top;">:</td><td><div></div></td></tr><tr><td style="font-weight:bold;vertical-align:top;">path</td><td style="vertical-align:top;">:</td><td><div></div></td></tr><tr><td style="font-weight:bold;vertical-align:top;">secure</td><td style="vertical-align:top;">:</td><td><div></div></td></tr><tr><td style="font-weight:bold;vertical-align:top;">version</td><td style="vertical-align:top;">:</td><td><div></div></td></tr></table></div></td></tr><tr><td style="font-weight:bold;vertical-align:top;">session_id_cs183_budget</td><td style="vertical-align:top;">:</td><td><div>1:81ba78bd-de5e-4348-bd20-dc6b9d9d4620<table><tr><td style="font-weight:bold;vertical-align:top;">comment</td><td style="vertical-align:top;">:</td><td><div></div></td></tr><tr><td style="font-weight:bold;vertical-align:top;">domain</td><td style="vertical-align:top;">:</td><td><div></div></td></tr><tr><td style="font-weight:bold;vertical-align:top;">expires</td><td style="vertical-align:top;">:</td><td><div></div></td></tr><tr><td style="font-weight:bold;vertical-align:top;">httponly</td><td style="vertical-align:top;">:</td><td><div></div></td></tr><tr><td style="font-weight:bold;vertical-align:top;">max-age</td><td style="vertical-align:top;">:</td><td><div></div></td></tr><tr><td style="font-weight:bold;vertical-align:top;">path</td><td style="vertical-align:top;">:</td><td><div></div></td></tr><tr><td style="font-weight:bold;vertical-align:top;">secure</td><td style="vertical-align:top;">:</td><td><div></div></td></tr><tr><td style="font-weight:bold;vertical-align:top;">version</td><td style="vertical-align:top;">:</td><td><div></div></td></tr></table></div></td></tr><tr><td style="font-weight:bold;vertical-align:top;">session_id_start</td><td style="vertical-align:top;">:</td><td><div>10:c5562e75-6ad3-4321-926f-a499f9faa84e<table><tr><td style="font-weight:bold;vertical-align:top;">comment</td><td style="vertical-align:top;">:</td><td><div></div></td></tr><tr><td style="font-weight:bold;vertical-align:top;">domain</td><td style="vertical-align:top;">:</td><td><div></div></td></tr><tr><td style="font-weight:bold;vertical-align:top;">expires</td><td style="vertical-align:top;">:</td><td><div></div></td></tr><tr><td style="font-weight:bold;vertical-align:top;">httponly</td><td style="vertical-align:top;">:</td><td><div></div></td></tr><tr><td style="font-weight:bold;vertical-align:top;">max-age</td><td style="vertical-align:top;">:</td><td><div></div></td></tr><tr><td style="font-weight:bold;vertical-align:top;">path</td><td style="vertical-align:top;">:</td><td><div></div></td></tr><tr><td style="font-weight:bold;vertical-align:top;">secure</td><td style="vertical-align:top;">:</td><td><div></div></td></tr><tr><td style="font-weight:bold;vertical-align:top;">version</td><td style="vertical-align:top;">:</td><td><div></div></td></tr></table></div></td></tr><tr><td style="font-weight:bold;vertical-align:top;">session_id_test</td><td style="vertical-align:top;">:</td><td><div>2:d9e3a0c9-488f-4759-95a3-82d01ebbc8fe<table><tr><td style="font-weight:bold;vertical-align:top;">comment</td><td style="vertical-align:top;">:</td><td><div></div></td></tr><tr><td style="font-weight:bold;vertical-align:top;">domain</td><td style="vertical-align:top;">:</td><td><div></div></td></tr><tr><td style="font-weight:bold;vertical-align:top;">expires</td><td style="vertical-align:top;">:</td><td><div></div></td></tr><tr><td style="font-weight:bold;vertical-align:top;">httponly</td><td style="vertical-align:top;">:</td><td><div></div></td></tr><tr><td style="font-weight:bold;vertical-align:top;">max-age</td><td style="vertical-align:top;">:</td><td><div></div></td></tr><tr><td style="font-weight:bold;vertical-align:top;">path</td><td style="vertical-align:top;">:</td><td><div></div></td></tr><tr><td style="font-weight:bold;vertical-align:top;">secure</td><td style="vertical-align:top;">:</td><td><div></div></td></tr><tr><td style="font-weight:bold;vertical-align:top;">version</td><td style="vertical-align:top;">:</td><td><div></div></td></tr></table></div></td></tr><tr><td style="font-weight:bold;vertical-align:top;">session_id_vue_class</td><td style="vertical-align:top;">:</td><td><div>3:3917ceed-73dc-4cfa-b8a2-e7c4d6eef850<table><tr><td style="font-weight:bold;vertical-align:top;">comment</td><td style="vertical-align:top;">:</td><td><div></div></td></tr><tr><td style="font-weight:bold;vertical-align:top;">domain</td><td style="vertical-align:top;">:</td><td><div></div></td></tr><tr><td style="font-weight:bold;vertical-align:top;">expires</td><td style="vertical-align:top;">:</td><td><div></div></td></tr><tr><td style="font-weight:bold;vertical-align:top;">httponly</td><td style="vertical-align:top;">:</td><td><div></div></td></tr><tr><td style="font-weight:bold;vertical-align:top;">max-age</td><td style="vertical-align:top;">:</td><td><div></div></td></tr><tr><td style="font-weight:bold;vertical-align:top;">path</td><td style="vertical-align:top;">:</td><td><div></div></td></tr><tr><td style="font-weight:bold;vertical-align:top;">secure</td><td style="vertical-align:top;">:</td><td><div></div></td></tr><tr><td style="font-weight:bold;vertical-align:top;">version</td><td style="vertical-align:top;">:</td><td><div></div></td></tr></table></div></td></tr><tr><td style="font-weight:bold;vertical-align:top;">session_id_welcome</td><td style="vertical-align:top;">:</td><td><div>127.0.0.1-f908fedb-9a85-48f8-8f47-52f02d633cc8<table><tr><td style="font-weight:bold;vertical-align:top;">comment</td><td style="vertical-align:top;">:</td><td><div></div></td></tr><tr><td style="font-weight:bold;vertical-align:top;">domain</td><td style="vertical-align:top;">:</td><td><div></div></td></tr><tr><td style="font-weight:bold;vertical-align:top;">expires</td><td style="vertical-align:top;">:</td><td><div></div></td></tr><tr><td style="font-weight:bold;vertical-align:top;">httponly</td><td style="vertical-align:top;">:</td><td><div></div></td></tr><tr><td style="font-weight:bold;vertical-align:top;">max-age</td><td style="vertical-align:top;">:</td><td><div></div></td></tr><tr><td style="font-weight:bold;vertical-align:top;">path</td><td style="vertical-align:top;">:</td><td><div></div></td></tr><tr><td style="font-weight:bold;vertical-align:top;">secure</td><td style="vertical-align:top;">:</td><td><div></div></td></tr><tr><td style="font-weight:bold;vertical-align:top;">version</td><td style="vertical-align:top;">:</td><td><div></div></td></tr></table></div></td></tr></table></div></td></tr><tr><td style="font-weight:bold;vertical-align:top;">env</td><td style="vertical-align:top;">:</td><td><div><table><tr><td style="font-weight:bold;vertical-align:top;">HTTP_ACCEPT</td><td style="vertical-align:top;">:</td><td><div>text/html,application/xhtml+xml,application/xml;q=0.9,image/webp,image/apng,*/*;q=0.8</div></td></tr><tr><td style="font-weight:bold;vertical-align:top;">HTTP_ACCEPT_ENCODING</td><td style="vertical-align:top;">:</td><td><div>gzip, deflate, br</div></td></tr><tr><td style="font-weight:bold;vertical-align:top;">HTTP_ACCEPT_LANGUAGE</td><td style="vertical-align:top;">:</td><td><div>en-US,en;q=0.9</div></td></tr><tr><td style="font-weight:bold;vertical-align:top;">HTTP_CACHE_CONTROL</td><td style="vertical-align:top;">:</td><td><div>max-age=0</div></td></tr><tr><td style="font-weight:bold;vertical-align:top;">HTTP_CONNECTION</td><td style="vertical-align:top;">:</td><td><div>keep-alive</div></td></tr><tr><td style="font-weight:bold;vertical-align:top;">HTTP_COOKIE</td><td style="vertical-align:top;">:</td><td><div>session_id_vue_class=&quot;3:3917ceed-73dc-4cfa-b8a2-e7c4d6eef850&quot;; session_id_admin=127.0.0.1-aa3ce4b8-e416-4664-9d90-8c3b10b8a265; session_id_test=&quot;2:d9e3a0c9-488f-4759-95a3-82d01ebbc8fe&quot;; session_id_start=&quot;10:c5562e75-6ad3-4321-926f-a499f9faa84e&quot;; session_id_welcome=127.0.0.1-f908fedb-9a85-48f8-8f47-52f02d633cc8; session_id_cs183_budget=&quot;1:81ba78bd-de5e-4348-bd20-dc6b9d9d4620&quot;</div></td></tr><tr><td style="font-weight:bold;vertical-align:top;">HTTP_HOST</td><td style="vertical-align:top;">:</td><td><div>127.0.0.1:8000</div></td></tr><tr><td style="font-weight:bold;vertical-align:top;">HTTP_REFERER</td><td style="vertical-align:top;">:</td><td><div>http://127.0.0.1:8000/cs183_budget/default/user/register?_next=/cs183_budget/default/index</div></td></tr><tr><td style="font-weight:bold;vertical-align:top;">HTTP_SAVE_DATA</td><td style="vertical-align:top;">:</td><td><div>on</div></td></tr><tr><td style="font-weight:bold;vertical-align:top;">HTTP_UPGRADE_INSECURE_REQUESTS</td><td style="vertical-align:top;">:</td><td><div>1</div></td></tr><tr><td style="font-weight:bold;vertical-align:top;">HTTP_USER_AGENT</td><td style="vertical-align:top;">:</td><td><div>Mozilla/5.0 (Windows NT 10.0; Win64; x64) AppleWebKit/537.36 (KHTML, like Gecko) Chrome/66.0.3359.181 Safari/537.36</div></td></tr><tr><td style="font-weight:bold;vertical-align:top;">PATH_INFO</td><td style="vertical-align:top;">:</td><td><div>/cs183_budget/default/index</div></td></tr><tr><td style="font-weight:bold;vertical-align:top;">QUERY_STRING</td><td style="vertical-align:top;">:</td><td><div></div></td></tr><tr><td style="font-weight:bold;vertical-align:top;">REMOTE_ADDR</td><td style="vertical-align:top;">:</td><td><div>127.0.0.1</div></td></tr><tr><td style="font-weight:bold;vertical-align:top;">REMOTE_PORT</td><td style="vertical-align:top;">:</td><td><div>51858</div></td></tr><tr><td style="font-weight:bold;vertical-align:top;">REQUEST_METHOD</td><td style="vertical-align:top;">:</td><td><div>GET</div></td></tr><tr><td style="font-weight:bold;vertical-align:top;">SCRIPT_NAME</td><td style="vertical-align:top;">:</td><td><div></div></td></tr><tr><td style="font-weight:bold;vertical-align:top;">SERVER_NAME</td><td style="vertical-align:top;">:</td><td><div>LAPTOP-31UAESFA</div></td></tr><tr><td style="font-weight:bold;vertical-align:top;">SERVER_PORT</td><td style="vertical-align:top;">:</td><td><div>8000</div></td></tr><tr><td style="font-weight:bold;vertical-align:top;">SERVER_PROTOCOL</td><td style="vertical-align:top;">:</td><td><div>HTTP/1.1</div></td></tr><tr><td style="font-weight:bold;vertical-align:top;">SERVER_SOFTWARE</td><td style="vertical-align:top;">:</td><td><div>Rocket 1.2.6</div></td></tr><tr><td style="font-weight:bold;vertical-align:top;">app_folders</td><td style="vertical-align:top;">:</td><td><div>set([&#x27;C:\\\\Users\\\\justi\\\\Documents\\\\Work\\\\CS183\\\\web2py\\\\applications\\\\admin\\\\&#x27;, &#x27;C:\\\\Users\\\\justi\\\\Documents\\\\Work\\\\CS183\\\\web2py\\\\applications\\\\cs183_budget\\\\&#x27;])</div></td></tr><tr><td style="font-weight:bold;vertical-align:top;">applications_parent</td><td style="vertical-align:top;">:</td><td><div>C:\\Users\\justi\\Documents\\Work\\CS183\\web2py</div></td></tr><tr><td style="font-weight:bold;vertical-align:top;">cmd_args</td><td style="vertical-align:top;">:</td><td><div><table></table></div></td></tr><tr><td style="font-weight:bold;vertical-align:top;">cmd_options</td><td style="vertical-align:top;">:</td><td><div>&lt;Values at 0x4f243c8: {&#x27;verbose&#x27;: False, &#x27;ip&#x27;: &#x27;127.0.0.1&#x27;, &#x27;debuglevel&#x27;: 30, &#x27;with_scheduler&#x27;: False, &#x27;shutdown_timeout&#x27;: 5, &#x27;taskbar&#x27;: False, &#x27;with_coverage&#x27;: False, &#x27;pid_filename&#x27;: &#x27;httpserver.pid&#x27;, &#x27;maxthreads&#x27;: None, &#x27;softcron&#x27;: False, &#x27;server_name&#x27;: &#x27;LAPTOP-31UAESFA&#x27;, &#x27;bpython&#x27;: False, &#x27;nogui&#x27;: False, &#x27;port&#x27;: 8000, &#x27;print_errors&#x27;: True, &#x27;extcron&#x27;: False, &#x27;runcron&#x27;: False, &#x27;run_system_tests&#x27;: False, &#x27;test&#x27;: None, &#x27;folder&#x27;: &#x27;C:\\\\Users\\\\justi\\\\Documents\\\\Work\\\\CS183\\\\web2py&#x27;, &#x27;config&#x27;: &#x27;&#x27;, &#x27;minthreads&#x27;: None, &#x27;shell&#x27;: None, &#x27;run&#x27;: &#x27;&#x27;, &#x27;log_filename&#x27;: &#x27;httpserver.log&#x27;, &#x27;profiler_dir&#x27;: None, &#x27;args&#x27;: [&#x27;&#x27;], &#x27;socket_timeout&#x27;: 5, &#x27;ssl_ca_certificate&#x27;: None, &#x27;scheduler&#x27;: None, &#x27;interfaces&#x27;: None, &#x27;ssl_private_key&#x27;: &#x27;&#x27;, &#x27;gae&#x27;: None, &#x27;password&#x27;: &#x27;******&#x27;, &#x27;request_queue_size&#x27;: 5, &#x27;ssl_certificate&#x27;: &#x27;&#x27;, &#x27;cronjob&#x27;: False, &#x27;numthreads&#x27;: None, &#x27;quiet&#x27;: False, &#x27;import_models&#x27;: False, &#x27;timeout&#x27;: 10, &#x27;plain&#x27;: False, &#x27;nobanner&#x27;: False}&gt;</div></td></tr><tr><td style="font-weight:bold;vertical-align:top;">db_sessions</td><td style="vertical-align:top;">:</td><td><div>set([&#x27;cs183_budget&#x27;])</div></td></tr><tr><td style="font-weight:bold;vertical-align:top;">debugging</td><td style="vertical-align:top;">:</td><td><div>False</div></td></tr><tr><td style="font-weight:bold;vertical-align:top;">gluon_parent</td><td style="vertical-align:top;">:</td><td><div>C:\\Users\\justi\\Documents\\Work\\CS183\\web2py</div></td></tr><tr><td style="font-weight:bold;vertical-align:top;">http_accept</td><td style="vertical-align:top;">:</td><td><div>text/html,application/xhtml+xml,application/xml;q=0.9,image/webp,image/apng,*/*;q=0.8</div></td></tr><tr><td style="font-weight:bold;vertical-align:top;">http_accept_encoding</td><td style="vertical-align:top;">:</td><td><div>gzip, deflate, br</div></td></tr><tr><td style="font-weight:bold;vertical-align:top;">http_accept_language</td><td style="vertical-align:top;">:</td><td><div>en-US,en;q=0.9</div></td></tr><tr><td style="font-weight:bold;vertical-align:top;">http_cache_control</td><td style="vertical-align:top;">:</td><td><div>max-age=0</div></td></tr><tr><td style="font-weight:bold;vertical-align:top;">http_connection</td><td style="vertical-align:top;">:</td><td><div>keep-alive</div></td></tr><tr><td style="font-weight:bold;vertical-align:top;">http_cookie</td><td style="vertical-align:top;">:</td><td><div>session_id_vue_class=&quot;3:3917ceed-73dc-4cfa-b8a2-e7c4d6eef850&quot;; session_id_admin=127.0.0.1-aa3ce4b8-e416-4664-9d90-8c3b10b8a265; session_id_test=&quot;2:d9e3a0c9-488f-4759-95a3-82d01ebbc8fe&quot;; session_id_start=&quot;10:c5562e75-6ad3-4321-926f-a499f9faa84e&quot;; session_id_welcome=127.0.0.1-f908fedb-9a85-48f8-8f47-52f02d633cc8; session_id_cs183_budget=&quot;1:81ba78bd-de5e-4348-bd20-dc6b9d9d4620&quot;</div></td></tr><tr><td style="font-weight:bold;vertical-align:top;">http_host</td><td style="vertical-align:top;">:</td><td><div>127.0.0.1:8000</div></td></tr><tr><td style="font-weight:bold;vertical-align:top;">http_referer</td><td style="vertical-align:top;">:</td><td><div>http://127.0.0.1:8000/cs183_budget/default/user/register?_next=/cs183_budget/default/index</div></td></tr><tr><td style="font-weight:bold;vertical-align:top;">http_save_data</td><td style="vertical-align:top;">:</td><td><div>on</div></td></tr><tr><td style="font-weight:bold;vertical-align:top;">http_upgrade_insecure_requests</td><td style="vertical-align:top;">:</td><td><div>1</div></td></tr><tr><td style="font-weight:bold;vertical-align:top;">http_user_agent</td><td style="vertical-align:top;">:</td><td><div>Mozilla/5.0 (Windows NT 10.0; Win64; x64) AppleWebKit/537.36 (KHTML, like Gecko) Chrome/66.0.3359.181 Safari/537.36</div></td></tr><tr><td style="font-weight:bold;vertical-align:top;">is_jython</td><td style="vertical-align:top;">:</td><td><div>False</div></td></tr><tr><td style="font-weight:bold;vertical-align:top;">is_py2</td><td style="vertical-align:top;">:</td><td><div>True</div></td></tr><tr><td style="font-weight:bold;vertical-align:top;">is_pypy</td><td style="vertical-align:top;">:</td><td><div>False</div></td></tr><tr><td style="font-weight:bold;vertical-align:top;">is_source</td><td style="vertical-align:top;">:</td><td><div>True</div></td></tr><tr><td style="font-weight:bold;vertical-align:top;">local_hosts</td><td style="vertical-align:top;">:</td><td><div><table><tr><td><div>2601:647:cb00:ef6f::9e12</div></td></tr><tr><td><div>LAPTOP-31UAESFA.hsd1.ca.comcast.net</div></td></tr><tr><td><div>2601:647:cb00:ef6f:5086:1f21:9b99:d4e9</div></td></tr><tr><td><div>::ffff:127.0.0.1</div></td></tr><tr><td><div>::1</div></td></tr><tr><td><div>10.0.0.28</div></td></tr><tr><td><div>fe80::29f3:b094:f84a:65de%5</div></td></tr><tr><td><div>2601:647:cb00:ef6f:29f3:b094:f84a:65de</div></td></tr><tr><td><div>127.0.0.1</div></td></tr><tr><td><div>LAPTOP-31UAESFA</div></td></tr></table></div></td></tr><tr><td style="font-weight:bold;vertical-align:top;">path_info</td><td style="vertical-align:top;">:</td><td><div>/cs183_budget/default/index</div></td></tr><tr><td style="font-weight:bold;vertical-align:top;">query_string</td><td style="vertical-align:top;">:</td><td><div></div></td></tr><tr><td style="font-weight:bold;vertical-align:top;">remote_addr</td><td style="vertical-align:top;">:</td><td><div>127.0.0.1</div></td></tr><tr><td style="font-weight:bold;vertical-align:top;">remote_port</td><td style="vertical-align:top;">:</td><td><div>51858</div></td></tr><tr><td style="font-weight:bold;vertical-align:top;">request_method</td><td style="vertical-align:top;">:</td><td><div>GET</div></td></tr><tr><td style="font-weight:bold;vertical-align:top;">request_uri</td><td style="vertical-align:top;">:</td><td><div>/cs183_budget/default/index</div></td></tr><tr><td style="font-weight:bold;vertical-align:top;">script_name</td><td style="vertical-align:top;">:</td><td><div></div></td></tr><tr><td style="font-weight:bold;vertical-align:top;">server_name</td><td style="vertical-align:top;">:</td><td><div>LAPTOP-31UAESFA</div></td></tr><tr><td style="font-weight:bold;vertical-align:top;">server_port</td><td style="vertical-align:top;">:</td><td><div>8000</div></td></tr><tr><td style="font-weight:bold;vertical-align:top;">server_protocol</td><td style="vertical-align:top;">:</td><td><div>HTTP/1.1</div></td></tr><tr><td style="font-weight:bold;vertical-align:top;">server_software</td><td style="vertical-align:top;">:</td><td><div>Rocket 1.2.6</div></td></tr><tr><td style="font-weight:bold;vertical-align:top;">web2py_path</td><td style="vertical-align:top;">:</td><td><div>C:\\Users\\justi\\Documents\\Work\\CS183\\web2py</div></td></tr><tr><td style="font-weight:bold;vertical-align:top;">web2py_version</td><td style="vertical-align:top;">:</td><td><div>2.16.1-stable+timestamp.2017.11.14.05.54.25</div></td></tr><tr><td style="font-weight:bold;vertical-align:top;">wsgi.errors</td><td style="vertical-align:top;">:</td><td><div>&lt;open file &#x27;&lt;stderr&gt;&#x27;, mode &#x27;w&#x27; at 0x00000000031FB150&gt;</div></td></tr><tr><td style="font-weight:bold;vertical-align:top;">wsgi.file_wrapper</td><td style="vertical-align:top;">:</td><td><div>&lt;class wsgiref.util.FileWrapper at 0x0000000005458A08&gt;</div></td></tr><tr><td style="font-weight:bold;vertical-align:top;">wsgi.input</td><td style="vertical-align:top;">:</td><td><div>&lt;socket._fileobject object at 0x000000000C799930&gt;</div></td></tr><tr><td style="font-weight:bold;vertical-align:top;">wsgi.multiprocess</td><td style="vertical-align:top;">:</td><td><div>False</div></td></tr><tr><td style="font-weight:bold;vertical-align:top;">wsgi.multithread</td><td style="vertical-align:top;">:</td><td><div>True</div></td></tr><tr><td style="font-weight:bold;vertical-align:top;">wsgi.run_once</td><td style="vertical-align:top;">:</td><td><div>False</div></td></tr><tr><td style="font-weight:bold;vertical-align:top;">wsgi.url_scheme</td><td style="vertical-align:top;">:</td><td><div>http</div></td></tr><tr><td style="font-weight:bold;vertical-align:top;">wsgi.version</td><td style="vertical-align:top;">:</td><td><div><table><tr><td><div>1</div></td></tr><tr><td><div>0</div></td></tr></table></div></td></tr><tr><td style="font-weight:bold;vertical-align:top;">wsgi_errors</td><td style="vertical-align:top;">:</td><td><div>&lt;open file &#x27;&lt;stderr&gt;&#x27;, mode &#x27;w&#x27; at 0x00000000031FB150&gt;</div></td></tr><tr><td style="font-weight:bold;vertical-align:top;">wsgi_file_wrapper</td><td style="vertical-align:top;">:</td><td><div>&lt;class wsgiref.util.FileWrapper at 0x0000000005458A08&gt;</div></td></tr><tr><td style="font-weight:bold;vertical-align:top;">wsgi_input</td><td style="vertical-align:top;">:</td><td><div>&lt;socket._fileobject object at 0x000000000C799930&gt;</div></td></tr><tr><td style="font-weight:bold;vertical-align:top;">wsgi_multiprocess</td><td style="vertical-align:top;">:</td><td><div>False</div></td></tr><tr><td style="font-weight:bold;vertical-align:top;">wsgi_multithread</td><td style="vertical-align:top;">:</td><td><div>True</div></td></tr><tr><td style="font-weight:bold;vertical-align:top;">wsgi_run_once</td><td style="vertical-align:top;">:</td><td><div>False</div></td></tr><tr><td style="font-weight:bold;vertical-align:top;">wsgi_url_scheme</td><td style="vertical-align:top;">:</td><td><div>http</div></td></tr><tr><td style="font-weight:bold;vertical-align:top;">wsgi_version</td><td style="vertical-align:top;">:</td><td><div><table><tr><td><div>1</div></td></tr><tr><td><div>0</div></td></tr></table></div></td></tr></table></div></td></tr><tr><td style="font-weight:bold;vertical-align:top;">extension</td><td style="vertical-align:top;">:</td><td><div>html</div></td></tr><tr><td style="font-weight:bold;vertical-align:top;">folder</td><td style="vertical-align:top;">:</td><td><div>C:\\Users\\justi\\Documents\\Work\\CS183\\web2py\\applications\\cs183_budget\\</div></td></tr><tr><td style="font-weight:bold;vertical-align:top;">function</td><td style="vertical-align:top;">:</td><td><div>index</div></td></tr><tr><td style="font-weight:bold;vertical-align:top;">global_settings</td><td style="vertical-align:top;">:</td><td><div><table><tr><td style="font-weight:bold;vertical-align:top;">app_folders</td><td style="vertical-align:top;">:</td><td><div>set([&#x27;C:\\\\Users\\\\justi\\\\Documents\\\\Work\\\\CS183\\\\web2py\\\\applications\\\\admin\\\\&#x27;, &#x27;C:\\\\Users\\\\justi\\\\Documents\\\\Work\\\\CS183\\\\web2py\\\\applications\\\\cs183_budget\\\\&#x27;])</div></td></tr><tr><td style="font-weight:bold;vertical-align:top;">applications_parent</td><td style="vertical-align:top;">:</td><td><div>C:\\Users\\justi\\Documents\\Work\\CS183\\web2py</div></td></tr><tr><td style="font-weight:bold;vertical-align:top;">cmd_args</td><td style="vertical-align:top;">:</td><td><div><table></table></div></td></tr><tr><td style="font-weight:bold;vertical-align:top;">cmd_options</td><td style="vertical-align:top;">:</td><td><div>&lt;Values at 0x4f243c8: {&#x27;verbose&#x27;: False, &#x27;ip&#x27;: &#x27;127.0.0.1&#x27;, &#x27;debuglevel&#x27;: 30, &#x27;with_scheduler&#x27;: False, &#x27;shutdown_timeout&#x27;: 5, &#x27;taskbar&#x27;: False, &#x27;with_coverage&#x27;: False, &#x27;pid_filename&#x27;: &#x27;httpserver.pid&#x27;, &#x27;maxthreads&#x27;: None, &#x27;softcron&#x27;: False, &#x27;server_name&#x27;: &#x27;LAPTOP-31UAESFA&#x27;, &#x27;bpython&#x27;: False, &#x27;nogui&#x27;: False, &#x27;port&#x27;: 8000, &#x27;print_errors&#x27;: True, &#x27;extcron&#x27;: False, &#x27;runcron&#x27;: False, &#x27;run_system_tests&#x27;: False, &#x27;test&#x27;: None, &#x27;folder&#x27;: &#x27;C:\\\\Users\\\\justi\\\\Documents\\\\Work\\\\CS183\\\\web2py&#x27;, &#x27;config&#x27;: &#x27;&#x27;, &#x27;minthreads&#x27;: None, &#x27;shell&#x27;: None, &#x27;run&#x27;: &#x27;&#x27;, &#x27;log_filename&#x27;: &#x27;httpserver.log&#x27;, &#x27;profiler_dir&#x27;: None, &#x27;args&#x27;: [&#x27;&#x27;], &#x27;socket_timeout&#x27;: 5, &#x27;ssl_ca_certificate&#x27;: None, &#x27;scheduler&#x27;: None, &#x27;interfaces&#x27;: None, &#x27;ssl_private_key&#x27;: &#x27;&#x27;, &#x27;gae&#x27;: None, &#x27;password&#x27;: &#x27;******&#x27;, &#x27;request_queue_size&#x27;: 5, &#x27;ssl_certificate&#x27;: &#x27;&#x27;, &#x27;cronjob&#x27;: False, &#x27;numthreads&#x27;: None, &#x27;quiet&#x27;: False, &#x27;import_models&#x27;: False, &#x27;timeout&#x27;: 10, &#x27;plain&#x27;: False, &#x27;nobanner&#x27;: False}&gt;</div></td></tr><tr><td style="font-weight:bold;vertical-align:top;">db_sessions</td><td style="vertical-align:top;">:</td><td><div>set([&#x27;cs183_budget&#x27;])</div></td></tr><tr><td style="font-weight:bold;vertical-align:top;">debugging</td><td style="vertical-align:top;">:</td><td><div>False</div></td></tr><tr><td style="font-weight:bold;vertical-align:top;">gluon_parent</td><td style="vertical-align:top;">:</td><td><div>C:\\Users\\justi\\Documents\\Work\\CS183\\web2py</div></td></tr><tr><td style="font-weight:bold;vertical-align:top;">is_jython</td><td style="vertical-align:top;">:</td><td><div>False</div></td></tr><tr><td style="font-weight:bold;vertical-align:top;">is_py2</td><td style="vertical-align:top;">:</td><td><div>True</div></td></tr><tr><td style="font-weight:bold;vertical-align:top;">is_pypy</td><td style="vertical-align:top;">:</td><td><div>False</div></td></tr><tr><td style="font-weight:bold;vertical-align:top;">is_source</td><td style="vertical-align:top;">:</td><td><div>True</div></td></tr><tr><td style="font-weight:bold;vertical-align:top;">local_hosts</td><td style="vertical-align:top;">:</td><td><div><table><tr><td><div>2601:647:cb00:ef6f::9e12</div></td></tr><tr><td><div>LAPTOP-31UAESFA.hsd1.ca.comcast.net</div></td></tr><tr><td><div>2601:647:cb00:ef6f:5086:1f21:9b99:d4e9</div></td></tr><tr><td><div>::ffff:127.0.0.1</div></td></tr><tr><td><div>::1</div></td></tr><tr><td><div>10.0.0.28</div></td></tr><tr><td><div>fe80::29f3:b094:f84a:65de%5</div></td></tr><tr><td><div>2601:647:cb00:ef6f:29f3:b094:f84a:65de</div></td></tr><tr><td><div>127.0.0.1</div></td></tr><tr><td><div>LAPTOP-31UAESFA</div></td></tr></table></div></td></tr><tr><td style="font-weight:bold;vertical-align:top;">web2py_version</td><td style="vertical-align:top;">:</td><td><div>2.16.1-stable+timestamp.2017.11.14.05.54.25</div></td></tr></table></div></td></tr><tr><td style="font-weight:bold;vertical-align:top;">is_https</td><td style="vertical-align:top;">:</td><td><div>False</div></td></tr><tr><td style="font-weight:bold;vertical-align:top;">is_local</td><td style="vertical-align:top;">:</td><td><div>True</div></td></tr><tr><td style="font-weight:bold;vertical-align:top;">is_restful</td><td style="vertical-align:top;">:</td><td><div>False</div></td></tr><tr><td style="font-weight:bold;vertical-align:top;">is_scheduler</td><td style="vertical-align:top;">:</td><td><div>False</div></td></tr><tr><td style="font-weight:bold;vertical-align:top;">is_shell</td><td style="vertical-align:top;">:</td><td><div>False</div></td></tr><tr><td style="font-weight:bold;vertical-align:top;">now</td><td style="vertical-align:top;">:</td><td><div>datetime.datetime(2018, 5, 24, 16, 43, 25, 545000)</div></td></tr><tr><td style="font-weight:bold;vertical-align:top;">raw_args</td><td style="vertical-align:top;">:</td><td><div></div></td></tr><tr><td style="font-weight:bold;vertical-align:top;">raw_extension</td><td style="vertical-align:top;">:</td><td><div>None</div></td></tr><tr><td style="font-weight:bold;vertical-align:top;">url</td><td style="vertical-align:top;">:</td><td><div>/cs183_budget/default/index</div></td></tr><tr><td style="font-weight:bold;vertical-align:top;">utcnow</td><td style="vertical-align:top;">:</td><td><div>datetime.datetime(2018, 5, 24, 23, 43, 25, 545000)</div></td></tr><tr><td style="font-weight:bold;vertical-align:top;">wsgi</td><td style="vertical-align:top;">:</td><td><div>&lt;gluon.main.LazyWSGI object at 0x00000000055E3860&gt;</div></td></tr></table></div>'
tRp64
sS'frames'
p65
(lp66
(dp67
S'file'
p68
S'C:\\Users\\justi\\Documents\\Work\\CS183\\web2py\\gluon\\restricted.py'
p69
sS'dump'
p70
(dp71
S'environment'
p72
S"{'A': <class 'gluon.html.A'>, 'ANY_OF': <class 'gluon.validators.ANY_OF'>, 'ASSIGNJS': <function ASSIGNJS>, 'AppConfig': <function AppConfig>, 'B': <class 'gluon.html.B'>, 'BEAUTIFY': <class 'gluon.html.BEAUTIFY'>, 'BODY': <class 'gluon.html.BODY'>, 'BR': <class 'gluon.html.BR'>, 'BUTTON': <class 'gluon.html.BUTTON'>, 'CAT': <class 'gluon.html.CAT'>, ...}"
p73
sS'ccode'
p74
S'<code object <module> at 00000000055E65B0, file ...\\applications\\cs183_budget\\models\\db.py", line 6>'
p75
ssS'lnum'
p76
I219
sS'lines'
p77
(dp78
I214
S'    if environment is None:'
p79
sI215
S'        environment = {}'
p80
sI216
S"    environment['__file__'] = layer"
p81
sI217
S"    environment['__name__'] = '__restricted__'"
p82
sI218
S'    try:'
p83
sI219
S'        exec(ccode, environment)'
p84
sI220
S'    except HTTP:'
p85
sI221
S'        raise'
p86
sI222
S'    except RestrictedError:'
p87
sI223
S'        # do not encapsulate (obfuscate) the original RestrictedError'
p88
ssS'call'
p89
S'(ccode=<code object <module> at 00000000055E65B0, file ...\\applications\\cs183_budget\\models\\db.py", line 6>, environment={\'A\': <class \'gluon.html.A\'>, \'ANY_OF\': <class \'gluon.validators.ANY_OF\'>, \'ASSIGNJS\': <function ASSIGNJS>, \'AppConfig\': <function AppConfig>, \'B\': <class \'gluon.html.B\'>, \'BEAUTIFY\': <class \'gluon.html.BEAUTIFY\'>, \'BODY\': <class \'gluon.html.BODY\'>, \'BR\': <class \'gluon.html.BR\'>, \'BUTTON\': <class \'gluon.html.BUTTON\'>, \'CAT\': <class \'gluon.html.CAT\'>, ...}, layer=r\'C:\\Users\\justi\\Documents\\Work\\CS183\\web2py\\applications\\cs183_budget\\models\\db.py\', scode=<code object <module> at 00000000055E65B0, file ...\\applications\\cs183_budget\\models\\db.py", line 6>)'
p90
sS'func'
p91
S'restricted'
p92
sa(dp93
g68
S'C:\\Users\\justi\\Documents\\Work\\CS183\\web2py\\applications\\cs183_budget\\models\\db.py'
p94
sg70
(dp95
S'db'
p96
S'<DAL uri="sqlite://storage.sqlite">'
p97
sS'session.connect'
p98
S'<bound method Session.connect of <Storage {}>>'
p99
sS'session'
p100
S'<Storage {}>'
p101
sS'request'
p102
S"<Storage {'_vars': None, 'function': 'index', 'c...k\\\\CS183\\\\web2py\\\\applications\\\\cs183_budget\\\\'}>"
p103
sS'response'
p104
S"<Storage {'body': <cStringIO.StringO object at 0...000000000D260CF8>, 'view': 'default/index.html'}>"
p105
ssg76
I26
sg77
(dp106
I21
S"    db = DAL(myconf.get('db.uri'),"
p107
sI22
S"             pool_size=myconf.get('db.pool_size'),"
p108
sI23
S"             migrate_enabled=myconf.get('db.migrate'),"
p109
sI24
S"             check_reserved=['all'])"
p110
sI25
S'    # I like to keep the session in the db.'
p111
sI26
S'    session.connect(request, response, db=db)'
p112
sI27
S'else:'
p113
sI28
S"    # connect to Google BigTable (optional 'google:datastore://namespace')"
p114
sI29
S"    db = DAL('google:datastore+ndb')"
p115
sI30
S'    # store sessions and tickets there'
p116
ssg89
S'()'
p117
sg91
S'<module>'
p118
sa(dp119
g68
S'C:\\Users\\justi\\Documents\\Work\\CS183\\web2py\\gluon\\globals.py'
p120
sg70
(dp121
S'migrate'
p122
S'True'
p123
sS'table_migrate'
p124
g123
ssg76
I951
sg77
(dp125
I946
S"                    Field('created_datetime', 'datetime',"
p126
sI947
S'                          default=request.now),'
p127
sI948
S"                    Field('modified_datetime', 'datetime'),"
p128
sI949
S"                    Field('unique_key', length=64),"
p129
sI950
S"                    Field('session_data', 'blob'),"
p130
sI951
S'                    migrate=table_migrate,'
p131
sI952
S'                )'
p132
sI953
S'                table = db[tname]  # to allow for lazy table'
p133
sI954
S'            response.session_db_table = table'
p134
sI955
S'            if response.session_id:'
p135
ssg89
S'(self=<Storage {}>, request=<Storage {\'_vars\': None, \'function\': \'index\', \'c...k\\\\CS183\\\\web2py\\\\applications\\\\cs183_budget\\\\\'}>, response=<Storage {\'body\': <cStringIO.StringO object at 0...000000000D260CF8>, \'view\': \'default/index.html\'}>, db=<DAL uri="sqlite://storage.sqlite">, tablename=\'web2py_session\', masterapp=\'cs183_budget\', migrate=True, separate=None, check_client=False, cookie_key=None, cookie_expires=None, compression_level=None)'
p136
sg91
S'connect'
p137
sa(dp138
g68
S'C:\\Users\\justi\\Documents\\Work\\CS183\\web2py\\gluon\\packages\\dal\\pydal\\base.py'
p139
sg70
(dp140
S'fields'
p141
S'(<pydal.objects.Field object>, <pydal.objects.Field object>, <pydal.objects.Field object>, <pydal.objects.Field object>, <pydal.objects.Field object>, <pydal.objects.Field object>)'
p142
sS'self'
p143
S'<DAL uri="sqlite://storage.sqlite">'
p144
sS'args'
p145
S"{'migrate': True}"
p146
sS'tablename'
p147
S"'web2py_session_cs183_budget'"
p148
sS'table'
p149
S'undefined'
p150
sS'self.lazy_define_table'
p151
S'<bound method DAL.lazy_define_table of <DAL uri="sqlite://storage.sqlite">>'
p152
ssg76
I586
sg77
(dp153
I581
S'                                  (tablename, invalid_args))'
p154
sI582
S'        if self._lazy_tables and tablename not in self._LAZY_TABLES:'
p155
sI583
S'            self._LAZY_TABLES[tablename] = (tablename, fields, args)'
p156
sI584
S'            table = None'
p157
sI585
S'        else:'
p158
sI586
S'            table = self.lazy_define_table(tablename, *fields, **args)'
p159
sI587
S'        if tablename not in self.tables:'
p160
sI588
S'            self.tables.append(tablename)'
p161
sI589
S'        return table'
p162
sI590
S''
ssg89
S'(self=<DAL uri="sqlite://storage.sqlite">, tablename=\'web2py_session_cs183_budget\', *fields=(<pydal.objects.Field object>, <pydal.objects.Field object>, <pydal.objects.Field object>, <pydal.objects.Field object>, <pydal.objects.Field object>, <pydal.objects.Field object>), **args={\'migrate\': True})'
p163
sg91
S'define_table'
p164
sa(dp165
g68
S'C:\\Users\\justi\\Documents\\Work\\CS183\\web2py\\gluon\\packages\\dal\\pydal\\base.py'
p166
sg70
(dp167
S'polymodel'
p168
S'None'
p169
ssg76
I620
sg77
(dp170
I615
S'            try:'
p171
sI616
S'                GLOBAL_LOCKER.acquire()'
p172
sI617
S'                self._adapter.create_table('
p173
sI618
S'                    table, migrate=migrate,'
p174
sI619
S'                    fake_migrate=fake_migrate,'
p175
sI620
S'                    polymodel=polymodel)'
p176
sI621
S'            finally:'
p177
sI622
S'                GLOBAL_LOCKER.release()'
p178
sI623
S'        else:'
p179
sI624
S'            table._dbt = None'
p180
ssg89
S'(self=<DAL uri="sqlite://storage.sqlite">, tablename=\'web2py_session_cs183_budget\', *fields=(<pydal.objects.Field object>, <pydal.objects.Field object>, <pydal.objects.Field object>, <pydal.objects.Field object>, <pydal.objects.Field object>, <pydal.objects.Field object>), **args={\'migrate\': True})'
p181
sg91
S'lazy_define_table'
p182
sa(dp183
g68
S'C:\\Users\\justi\\Documents\\Work\\CS183\\web2py\\gluon\\packages\\dal\\pydal\\adapters\\base.py'
p184
sg70
(dp185
S'self'
p186
S'<pydal.adapters.sqlite.SQLite object>'
p187
sS'args'
p188
S'(<Table web2py_session_cs183_budget (id, locked, ...me, modified_datetime, unique_key, session_data)>,)'
p189
sS'self.migrator'
p190
S'<pydal.migrator.Migrator object>'
p191
sS'self.migrator.create_table'
p192
S'<bound method Migrator.create_table of <pydal.migrator.Migrator object>>'
p193
sS'kwargs'
p194
S"{'fake_migrate': False, 'migrate': True, 'polymodel': None}"
p195
ssg76
I797
sg77
(dp196
I800
S'        super(SQLAdapter, self)._drop_table_cleanup(table)'
p197
sI801
S'        if table._dbt:'
p198
sI792
S''
sI793
S'    def bulk_insert(self, table, items):'
p199
sI794
S'        return [self.insert(table, item) for item in items]'
p200
sI795
S''
sI796
S'    def create_table(self, *args, **kwargs):'
p201
sI797
S'        return self.migrator.create_table(*args, **kwargs)'
p202
sI798
S''
sI799
S'    def _drop_table_cleanup(self, table):'
p203
ssg89
S"(self=<pydal.adapters.sqlite.SQLite object>, *args=(<Table web2py_session_cs183_budget (id, locked, ...me, modified_datetime, unique_key, session_data)>,), **kwargs={'fake_migrate': False, 'migrate': True, 'polymodel': None})"
p204
sg91
S'create_table'
p205
sa(dp206
g68
S'C:\\Users\\justi\\Documents\\Work\\CS183\\web2py\\gluon\\packages\\dal\\pydal\\migrator.py'
p207
sg70
(dp208
S'query'
p209
S'\'CREATE TABLE "web2py_session_cs183_budget"(\\n    ..."unique_key" CHAR(64),\\n    "session_data" BLOB\\n);\''
p210
sS'self'
p211
S'<pydal.migrator.Migrator object>'
p212
sS'self.adapter'
p213
S'<pydal.adapters.sqlite.SQLite object>'
p214
sS'self.adapter.create_sequence_and_triggers'
p215
S'<bound method SQLite.create_sequence_and_triggers of <pydal.adapters.sqlite.SQLite object>>'
p216
sS'table'
p217
S'<Table web2py_session_cs183_budget (id, locked, ...me, modified_datetime, unique_key, session_data)>'
p218
ssg76
I277
sg77
(dp219
I272
S'            if table._dbt:'
p220
sI273
S"                self.log('timestamp: %s\\n%s\\n'"
p221
sI274
S'                         % (datetime.datetime.today().isoformat(),'
p222
sI275
S'                            query), table)'
p223
sI276
S'            if not fake_migrate:'
p224
sI277
S'                self.adapter.create_sequence_and_triggers(query, table)'
p225
sI278
S'                db.commit()'
p226
sI279
S'                # Postgres geom fields are added now,'
p227
sI280
S'                # after the table has been created'
p228
sI281
S'                for query in postcreation_fields:'
p229
ssg89
S'(self=<pydal.migrator.Migrator object>, table=<Table web2py_session_cs183_budget (id, locked, ...me, modified_datetime, unique_key, session_data)>, migrate=True, fake_migrate=False, polymodel=None)'
p230
sg91
g205
sa(dp231
g68
S'C:\\Users\\justi\\Documents\\Work\\CS183\\web2py\\gluon\\packages\\dal\\pydal\\adapters\\base.py'
p232
sg70
(dp233
S'query'
p234
S'\'CREATE TABLE "web2py_session_cs183_budget"(\\n    ..."unique_key" CHAR(64),\\n    "session_data" BLOB\\n);\''
p235
sS'self'
p236
S'<pydal.adapters.sqlite.SQLite object>'
p237
sS'self.execute'
p238
S'<bound method SQLite.wrap of <pydal.adapters.sqlite.SQLite object>>'
p239
ssg76
I880
sg77
(dp240
I875
S'    @with_connection'
p241
sI876
S'    def rollback_prepared(self, key):'
p242
sI877
S'        self.connection.rollback()'
p243
sI878
S''
sI879
S'    def create_sequence_and_triggers(self, query, table, **args):'
p244
sI880
S'        self.execute(query)'
p245
sI881
S''
sI882
S'    def sqlsafe_table(self, tablename, original_tablename=None):'
p246
sI883
S'        if original_tablename is not None:'
p247
sI884
S'            return self.dialect.alias(original_tablename, tablename)'
p248
ssg89
S'(self=<pydal.adapters.sqlite.SQLite object>, query=\'CREATE TABLE "web2py_session_cs183_budget"(\\n    ..."unique_key" CHAR(64),\\n    "session_data" BLOB\\n);\', table=<Table web2py_session_cs183_budget (id, locked, ...me, modified_datetime, unique_key, session_data)>, **args={})'
p249
sg91
S'create_sequence_and_triggers'
p250
sa(dp251
g68
S'C:\\Users\\justi\\Documents\\Work\\CS183\\web2py\\gluon\\packages\\dal\\pydal\\adapters\\__init__.py'
p252
sg70
(dp253
S'kwargs'
p254
g21
sS'args'
p255
S'(<pydal.adapters.sqlite.SQLite object>, \'CREATE TABLE "web2py_session_cs183_budget"(\\n    ..."unique_key" CHAR(64),\\n    "session_data" BLOB\\n);\')'
p256
sS'f'
S'<function execute>'
p257
ssg76
I67
sg77
(dp258
I64
S'            if len(args) > 1:'
p259
sI65
S'                raise ValueError(args[1])'
p260
sI66
S"            raise RuntimeError('no connection available')"
p261
sI67
S'        return f(*args, **kwargs)'
p262
sI68
S'    return wrap'
p263
sI69
S''
sI70
S''
sI71
S'from .base import SQLAdapter, NoSQLAdapter'
p264
sI62
S'    def wrap(*args, **kwargs):'
p265
sI63
S'        if not args[0].connection:'
p266
ssg89
S'(*args=(<pydal.adapters.sqlite.SQLite object>, \'CREATE TABLE "web2py_session_cs183_budget"(\\n    ..."unique_key" CHAR(64),\\n    "session_data" BLOB\\n);\'), **kwargs={})'
p267
sg91
S'wrap'
p268
sa(dp269
g68
S'C:\\Users\\justi\\Documents\\Work\\CS183\\web2py\\gluon\\packages\\dal\\pydal\\adapters\\base.py'
p270
sg70
(dp271
S'rv'
p272
g150
sS'self'
p273
S'<pydal.adapters.sqlite.SQLite object>'
p274
sS'args'
p275
S'(\'CREATE TABLE "web2py_session_cs183_budget"(\\n    ..."unique_key" CHAR(64),\\n    "session_data" BLOB\\n);\',)'
p276
sS'self.cursor'
p277
S'<sqlite3.Cursor object>'
p278
sS'command'
p279
S'\'CREATE TABLE "web2py_session_cs183_budget"(\\n    ..."unique_key" CHAR(64),\\n    "session_data" BLOB\\n);\''
p280
sS'self.cursor.execute'
p281
S'<built-in method execute of sqlite3.Cursor object>'
p282
sS'kwargs'
p283
g21
ssg76
I412
sg77
(dp284
I416
S''
sI407
S'    def execute(self, *args, **kwargs):'
p285
sI408
S'        command = self.filter_sql_command(args[0])'
p286
sI409
S'        handlers = self._build_handlers_for_execution()'
p287
sI410
S'        for handler in handlers:'
p288
sI411
S'            handler.before_execute(command)'
p289
sI412
S'        rv = self.cursor.execute(command, *args[1:], **kwargs)'
p290
sI413
S'        for handler in handlers:'
p291
sI414
S'            handler.after_execute(command)'
p292
sI415
S'        return rv'
p293
ssg89
S'(self=<pydal.adapters.sqlite.SQLite object>, *args=(\'CREATE TABLE "web2py_session_cs183_budget"(\\n    ..."unique_key" CHAR(64),\\n    "session_data" BLOB\\n);\',), **kwargs={})'
p294
sg91
S'execute'
p295
sasS'pyver'
p296
S'Python 2.7.14: C:\\ProgramData\\Anaconda2\\python.exe (prefix: C:\\ProgramData\\Anaconda2)'
p297
sS'session'
p298
g63
(S's\x1a\x00\x00\x00<div><table></table></div>'
tRp299
sS'etype'
p300
S"<class 'sqlite3.OperationalError'>"
p301
sS'date'
p302
S'Thu May 24 16:43:25 2018'
p303
sS'response'
p304
g63
(S's\xce\x0e\x00\x00<div><table><tr><td style="font-weight:bold;vertical-align:top;">body</td><td style="vertical-align:top;">:</td><td><div>&lt;cStringIO.StringO object at 0x000000000CD18D18&gt;</div></td></tr><tr><td style="font-weight:bold;vertical-align:top;">cookies</td><td style="vertical-align:top;">:</td><td><div><table></table></div></td></tr><tr><td style="font-weight:bold;vertical-align:top;">delimiters</td><td style="vertical-align:top;">:</td><td><div><table><tr><td><div>{{</div></td></tr><tr><td><div>}}</div></td></tr></table></div></td></tr><tr><td style="font-weight:bold;vertical-align:top;">files</td><td style="vertical-align:top;">:</td><td><div><table></table></div></td></tr><tr><td style="font-weight:bold;vertical-align:top;">flash</td><td style="vertical-align:top;">:</td><td><div></div></td></tr><tr><td style="font-weight:bold;vertical-align:top;">form_label_separator</td><td style="vertical-align:top;">:</td><td><div>: </div></td></tr><tr><td style="font-weight:bold;vertical-align:top;">formstyle</td><td style="vertical-align:top;">:</td><td><div>table3cols</div></td></tr><tr><td style="font-weight:bold;vertical-align:top;">generic_patterns</td><td style="vertical-align:top;">:</td><td><div><table><tr><td><div>*</div></td></tr></table></div></td></tr><tr><td style="font-weight:bold;vertical-align:top;">headers</td><td style="vertical-align:top;">:</td><td><div><table><tr><td style="font-weight:bold;vertical-align:top;">X-Powered-By</td><td style="vertical-align:top;">:</td><td><div>web2py</div></td></tr></table></div></td></tr><tr><td style="font-weight:bold;vertical-align:top;">menu</td><td style="vertical-align:top;">:</td><td><div><table></table></div></td></tr><tr><td style="font-weight:bold;vertical-align:top;">meta</td><td style="vertical-align:top;">:</td><td><div><table></table></div></td></tr><tr><td style="font-weight:bold;vertical-align:top;">models_to_run</td><td style="vertical-align:top;">:</td><td><div><table><tr><td><div>^\\w+\\.py$</div></td></tr><tr><td><div>^default/\\w+\\.py$</div></td></tr><tr><td><div>^default/index/\\w+\\.py$</div></td></tr></table></div></td></tr><tr><td style="font-weight:bold;vertical-align:top;">postprocessing</td><td style="vertical-align:top;">:</td><td><div><table></table></div></td></tr><tr><td style="font-weight:bold;vertical-align:top;">session_client</td><td style="vertical-align:top;">:</td><td><div>127.0.0.1</div></td></tr><tr><td style="font-weight:bold;vertical-align:top;">session_cookie_compression_level</td><td style="vertical-align:top;">:</td><td><div>None</div></td></tr><tr><td style="font-weight:bold;vertical-align:top;">session_cookie_expires</td><td style="vertical-align:top;">:</td><td><div>None</div></td></tr><tr><td style="font-weight:bold;vertical-align:top;">session_data_name</td><td style="vertical-align:top;">:</td><td><div>session_data_cs183_budget</div></td></tr><tr><td style="font-weight:bold;vertical-align:top;">session_id</td><td style="vertical-align:top;">:</td><td><div>1:81ba78bd-de5e-4348-bd20-dc6b9d9d4620</div></td></tr><tr><td style="font-weight:bold;vertical-align:top;">session_id_name</td><td style="vertical-align:top;">:</td><td><div>session_id_cs183_budget</div></td></tr><tr><td style="font-weight:bold;vertical-align:top;">session_masterapp</td><td style="vertical-align:top;">:</td><td><div>cs183_budget</div></td></tr><tr><td style="font-weight:bold;vertical-align:top;">session_storage_type</td><td style="vertical-align:top;">:</td><td><div>db</div></td></tr><tr><td style="font-weight:bold;vertical-align:top;">status</td><td style="vertical-align:top;">:</td><td><div>200</div></td></tr><tr><td style="font-weight:bold;vertical-align:top;">view</td><td style="vertical-align:top;">:</td><td><div>default/index.html</div></td></tr></table></div>'
tRp305
sS'locals'
p306
(dp307
S'handlers'
p308
S'[<pydal.helpers.classes.TimingHandler object>]'
p309
sS'self'
p310
S'<pydal.adapters.sqlite.SQLite object>'
p311
sg48
S'(\'CREATE TABLE "web2py_session_cs183_budget"(\\n    ..."unique_key" CHAR(64),\\n    "session_data" BLOB\\n);\',)'
p312
sS'handler'
p313
S'<pydal.helpers.classes.TimingHandler object>'
p314
sS'command'
p315
S'\'CREATE TABLE "web2py_session_cs183_budget"(\\n    ..."unique_key" CHAR(64),\\n    "session_data" BLOB\\n);\''
p316
sS'kwargs'
p317
g21
sssS'traceback'
p318
S'Traceback (most recent call last):\n  File "C:\\Users\\justi\\Documents\\Work\\CS183\\web2py\\gluon\\restricted.py", line 219, in restricted\n    exec(ccode, environment)\n  File "C:\\Users\\justi\\Documents\\Work\\CS183\\web2py\\applications\\cs183_budget\\models\\db.py", line 26, in <module>\n    session.connect(request, response, db=db)\n  File "C:\\Users\\justi\\Documents\\Work\\CS183\\web2py\\gluon\\globals.py", line 951, in connect\n    migrate=table_migrate,\n  File "C:\\Users\\justi\\Documents\\Work\\CS183\\web2py\\gluon\\packages\\dal\\pydal\\base.py", line 586, in define_table\n    table = self.lazy_define_table(tablename, *fields, **args)\n  File "C:\\Users\\justi\\Documents\\Work\\CS183\\web2py\\gluon\\packages\\dal\\pydal\\base.py", line 620, in lazy_define_table\n    polymodel=polymodel)\n  File "C:\\Users\\justi\\Documents\\Work\\CS183\\web2py\\gluon\\packages\\dal\\pydal\\adapters\\base.py", line 797, in create_table\n    return self.migrator.create_table(*args, **kwargs)\n  File "C:\\Users\\justi\\Documents\\Work\\CS183\\web2py\\gluon\\packages\\dal\\pydal\\migrator.py", line 277, in create_table\n    self.adapter.create_sequence_and_triggers(query, table)\n  File "C:\\Users\\justi\\Documents\\Work\\CS183\\web2py\\gluon\\packages\\dal\\pydal\\adapters\\base.py", line 880, in create_sequence_and_triggers\n    self.execute(query)\n  File "C:\\Users\\justi\\Documents\\Work\\CS183\\web2py\\gluon\\packages\\dal\\pydal\\adapters\\__init__.py", line 67, in wrap\n    return f(*args, **kwargs)\n  File "C:\\Users\\justi\\Documents\\Work\\CS183\\web2py\\gluon\\packages\\dal\\pydal\\adapters\\base.py", line 412, in execute\n    rv = self.cursor.execute(command, *args[1:], **kwargs)\nOperationalError: table "web2py_session_cs183_budget" already exists\n'
p319
s.