(dp1
S'output'
p2
S"<class 'sqlite3.OperationalError'> no such table: web2py_session_cs183_budget"
p3
sS'layer'
p4
S'C:\\Users\\jmeno\\Desktop\\web2py\\applications\\cs183_budget\\models\\db.py'
p5
sS'code'
p6
S'<code object <module> at 0000000003FDFEB0, file "C:\\Users\\jmeno\\Desktop\\web2py\\applications\\cs183_budget\\models\\db.py", line 6>'
p7
sS'snapshot'
p8
(dp9
S'exception'
p10
(dp11
S'__module__'
p12
S"'sqlite3'"
p13
sS'__getslice__'
p14
S"<method-wrapper '__getslice__' of OperationalError object>"
p15
sS'__str__'
p16
S"<method-wrapper '__str__' of OperationalError object>"
p17
sS'__reduce__'
p18
S'<built-in method __reduce__ of OperationalError object>'
p19
sS'__dict__'
p20
S'{}'
p21
sS'__sizeof__'
p22
S'<built-in method __sizeof__ of OperationalError object>'
p23
sS'__weakref__'
p24
S'None'
p25
sS'message'
p26
S"'no such table: web2py_session_cs183_budget'"
p27
sS'__init__'
p28
S"<method-wrapper '__init__' of OperationalError object>"
p29
sS'__setattr__'
p30
S"<method-wrapper '__setattr__' of OperationalError object>"
p31
sS'__reduce_ex__'
p32
S'<built-in method __reduce_ex__ of OperationalError object>'
p33
sS'__new__'
p34
S'<built-in method __new__ of type object>'
p35
sS'__format__'
p36
S'<built-in method __format__ of OperationalError object>'
p37
sS'__class__'
p38
S"<class 'sqlite3.OperationalError'>"
p39
sS'__doc__'
p40
S'None'
p41
sS'__getitem__'
p42
S"<method-wrapper '__getitem__' of OperationalError object>"
p43
sS'__setstate__'
p44
S'<built-in method __setstate__ of OperationalError object>'
p45
sS'__getattribute__'
p46
S"<method-wrapper '__getattribute__' of OperationalError object>"
p47
sS'args'
p48
S"('no such table: web2py_session_cs183_budget',)"
p49
sS'__subclasshook__'
p50
S'<built-in method __subclasshook__ of type object>'
p51
sS'__unicode__'
p52
S'<built-in method __unicode__ of OperationalError object>'
p53
sS'__delattr__'
p54
S"<method-wrapper '__delattr__' of OperationalError object>"
p55
sS'__repr__'
p56
S"<method-wrapper '__repr__' of OperationalError object>"
p57
sS'__hash__'
p58
S"<method-wrapper '__hash__' of OperationalError object>"
p59
ssS'evalue'
p60
S'no such table: web2py_session_cs183_budget'
p61
sS'request'
p62
cgluon.html
XML_unpickle
p63
(S's\x12e\x00\x00<div><table><tr><td style="font-weight:bold;vertical-align:top;">ajax</td><td style="vertical-align:top;">:</td><td><div>False</div></td></tr><tr><td style="font-weight:bold;vertical-align:top;">application</td><td style="vertical-align:top;">:</td><td><div>cs183_budget</div></td></tr><tr><td style="font-weight:bold;vertical-align:top;">args</td><td style="vertical-align:top;">:</td><td><div><table></table></div></td></tr><tr><td style="font-weight:bold;vertical-align:top;">cid</td><td style="vertical-align:top;">:</td><td><div>None</div></td></tr><tr><td style="font-weight:bold;vertical-align:top;">client</td><td style="vertical-align:top;">:</td><td><div>127.0.0.1</div></td></tr><tr><td style="font-weight:bold;vertical-align:top;">controller</td><td style="vertical-align:top;">:</td><td><div>default</div></td></tr><tr><td style="font-weight:bold;vertical-align:top;">cookies</td><td style="vertical-align:top;">:</td><td><div><table><tr><td style="font-weight:bold;vertical-align:top;">session_id_admin</td><td style="vertical-align:top;">:</td><td><div>127.0.0.1-d19b95b4-985d-4434-be56-b14186affeee<table><tr><td style="font-weight:bold;vertical-align:top;">comment</td><td style="vertical-align:top;">:</td><td><div></div></td></tr><tr><td style="font-weight:bold;vertical-align:top;">domain</td><td style="vertical-align:top;">:</td><td><div></div></td></tr><tr><td style="font-weight:bold;vertical-align:top;">expires</td><td style="vertical-align:top;">:</td><td><div></div></td></tr><tr><td style="font-weight:bold;vertical-align:top;">httponly</td><td style="vertical-align:top;">:</td><td><div></div></td></tr><tr><td style="font-weight:bold;vertical-align:top;">max-age</td><td style="vertical-align:top;">:</td><td><div></div></td></tr><tr><td style="font-weight:bold;vertical-align:top;">path</td><td style="vertical-align:top;">:</td><td><div></div></td></tr><tr><td style="font-weight:bold;vertical-align:top;">secure</td><td style="vertical-align:top;">:</td><td><div></div></td></tr><tr><td style="font-weight:bold;vertical-align:top;">version</td><td style="vertical-align:top;">:</td><td><div></div></td></tr></table></div></td></tr><tr><td style="font-weight:bold;vertical-align:top;">session_id_cs183_budget</td><td style="vertical-align:top;">:</td><td><div>1:f179d26a-0338-434b-a7b1-ebf8b099809a<table><tr><td style="font-weight:bold;vertical-align:top;">comment</td><td style="vertical-align:top;">:</td><td><div></div></td></tr><tr><td style="font-weight:bold;vertical-align:top;">domain</td><td style="vertical-align:top;">:</td><td><div></div></td></tr><tr><td style="font-weight:bold;vertical-align:top;">expires</td><td style="vertical-align:top;">:</td><td><div></div></td></tr><tr><td style="font-weight:bold;vertical-align:top;">httponly</td><td style="vertical-align:top;">:</td><td><div></div></td></tr><tr><td style="font-weight:bold;vertical-align:top;">max-age</td><td style="vertical-align:top;">:</td><td><div></div></td></tr><tr><td style="font-weight:bold;vertical-align:top;">path</td><td style="vertical-align:top;">:</td><td><div></div></td></tr><tr><td style="font-weight:bold;vertical-align:top;">secure</td><td style="vertical-align:top;">:</td><td><div></div></td></tr><tr><td style="font-weight:bold;vertical-align:top;">version</td><td style="vertical-align:top;">:</td><td><div></div></td></tr></table></div></td></tr><tr><td style="font-weight:bold;vertical-align:top;">session_id_hw2</td><td style="vertical-align:top;">:</td><td><div>1:906f84a4-b67c-4fb5-968b-31e237d8bb78<table><tr><td style="font-weight:bold;vertical-align:top;">comment</td><td style="vertical-align:top;">:</td><td><div></div></td></tr><tr><td style="font-weight:bold;vertical-align:top;">domain</td><td style="vertical-align:top;">:</td><td><div></div></td></tr><tr><td style="font-weight:bold;vertical-align:top;">expires</td><td style="vertical-align:top;">:</td><td><div></div></td></tr><tr><td style="font-weight:bold;vertical-align:top;">httponly</td><td style="vertical-align:top;">:</td><td><div></div></td></tr><tr><td style="font-weight:bold;vertical-align:top;">max-age</td><td style="vertical-align:top;">:</td><td><div></div></td></tr><tr><td style="font-weight:bold;vertical-align:top;">path</td><td style="vertical-align:top;">:</td><td><div></div></td></tr><tr><td style="font-weight:bold;vertical-align:top;">secure</td><td style="vertical-align:top;">:</td><td><div></div></td></tr><tr><td style="font-weight:bold;vertical-align:top;">version</td><td style="vertical-align:top;">:</td><td><div></div></td></tr></table></div></td></tr><tr><td style="font-weight:bold;vertical-align:top;">session_id_welcome</td><td style="vertical-align:top;">:</td><td><div>127.0.0.1-64dae72e-75a3-4e8b-aa7d-e9a176de868a<table><tr><td style="font-weight:bold;vertical-align:top;">comment</td><td style="vertical-align:top;">:</td><td><div></div></td></tr><tr><td style="font-weight:bold;vertical-align:top;">domain</td><td style="vertical-align:top;">:</td><td><div></div></td></tr><tr><td style="font-weight:bold;vertical-align:top;">expires</td><td style="vertical-align:top;">:</td><td><div></div></td></tr><tr><td style="font-weight:bold;vertical-align:top;">httponly</td><td style="vertical-align:top;">:</td><td><div></div></td></tr><tr><td style="font-weight:bold;vertical-align:top;">max-age</td><td style="vertical-align:top;">:</td><td><div></div></td></tr><tr><td style="font-weight:bold;vertical-align:top;">path</td><td style="vertical-align:top;">:</td><td><div></div></td></tr><tr><td style="font-weight:bold;vertical-align:top;">secure</td><td style="vertical-align:top;">:</td><td><div></div></td></tr><tr><td style="font-weight:bold;vertical-align:top;">version</td><td style="vertical-align:top;">:</td><td><div></div></td></tr></table></div></td></tr></table></div></td></tr><tr><td style="font-weight:bold;vertical-align:top;">env</td><td style="vertical-align:top;">:</td><td><div><table><tr><td style="font-weight:bold;vertical-align:top;">HTTP_ACCEPT</td><td style="vertical-align:top;">:</td><td><div>text/html,application/xhtml+xml,application/xml;q=0.9,image/webp,image/apng,*/*;q=0.8</div></td></tr><tr><td style="font-weight:bold;vertical-align:top;">HTTP_ACCEPT_ENCODING</td><td style="vertical-align:top;">:</td><td><div>gzip, deflate, br</div></td></tr><tr><td style="font-weight:bold;vertical-align:top;">HTTP_ACCEPT_LANGUAGE</td><td style="vertical-align:top;">:</td><td><div>en-US,en;q=0.9</div></td></tr><tr><td style="font-weight:bold;vertical-align:top;">HTTP_CONNECTION</td><td style="vertical-align:top;">:</td><td><div>keep-alive</div></td></tr><tr><td style="font-weight:bold;vertical-align:top;">HTTP_COOKIE</td><td style="vertical-align:top;">:</td><td><div>session_id_admin=127.0.0.1-d19b95b4-985d-4434-be56-b14186affeee; session_id_hw2=&quot;1:906f84a4-b67c-4fb5-968b-31e237d8bb78&quot;; session_id_cs183_budget=&quot;1:f179d26a-0338-434b-a7b1-ebf8b099809a&quot;; session_id_welcome=127.0.0.1-64dae72e-75a3-4e8b-aa7d-e9a176de868a</div></td></tr><tr><td style="font-weight:bold;vertical-align:top;">HTTP_HOST</td><td style="vertical-align:top;">:</td><td><div>127.0.0.1:8000</div></td></tr><tr><td style="font-weight:bold;vertical-align:top;">HTTP_REFERER</td><td style="vertical-align:top;">:</td><td><div>http://127.0.0.1:8000/admin/default/site</div></td></tr><tr><td style="font-weight:bold;vertical-align:top;">HTTP_UPGRADE_INSECURE_REQUESTS</td><td style="vertical-align:top;">:</td><td><div>1</div></td></tr><tr><td style="font-weight:bold;vertical-align:top;">HTTP_USER_AGENT</td><td style="vertical-align:top;">:</td><td><div>Mozilla/5.0 (Windows NT 10.0; Win64; x64) AppleWebKit/537.36 (KHTML, like Gecko) Chrome/66.0.3359.181 Safari/537.36</div></td></tr><tr><td style="font-weight:bold;vertical-align:top;">PATH_INFO</td><td style="vertical-align:top;">:</td><td><div>/cs183_budget/default/index</div></td></tr><tr><td style="font-weight:bold;vertical-align:top;">QUERY_STRING</td><td style="vertical-align:top;">:</td><td><div></div></td></tr><tr><td style="font-weight:bold;vertical-align:top;">REMOTE_ADDR</td><td style="vertical-align:top;">:</td><td><div>127.0.0.1</div></td></tr><tr><td style="font-weight:bold;vertical-align:top;">REMOTE_PORT</td><td style="vertical-align:top;">:</td><td><div>53421</div></td></tr><tr><td style="font-weight:bold;vertical-align:top;">REQUEST_METHOD</td><td style="vertical-align:top;">:</td><td><div>GET</div></td></tr><tr><td style="font-weight:bold;vertical-align:top;">SCRIPT_NAME</td><td style="vertical-align:top;">:</td><td><div></div></td></tr><tr><td style="font-weight:bold;vertical-align:top;">SERVER_NAME</td><td style="vertical-align:top;">:</td><td><div>LAPTOP-44Q4MK4V</div></td></tr><tr><td style="font-weight:bold;vertical-align:top;">SERVER_PORT</td><td style="vertical-align:top;">:</td><td><div>8000</div></td></tr><tr><td style="font-weight:bold;vertical-align:top;">SERVER_PROTOCOL</td><td style="vertical-align:top;">:</td><td><div>HTTP/1.1</div></td></tr><tr><td style="font-weight:bold;vertical-align:top;">SERVER_SOFTWARE</td><td style="vertical-align:top;">:</td><td><div>Rocket 1.2.6</div></td></tr><tr><td style="font-weight:bold;vertical-align:top;">app_folders</td><td style="vertical-align:top;">:</td><td><div>set([&#x27;C:\\\\Users\\\\jmeno\\\\Desktop\\\\web2py\\\\applications\\\\cs183_budget\\\\&#x27;, &#x27;C:\\\\Users\\\\jmeno\\\\Desktop\\\\web2py\\\\applications\\\\admin\\\\&#x27;, &#x27;C:\\\\Users\\\\jmeno\\\\Desktop\\\\web2py\\\\applications\\\\welcome\\\\&#x27;])</div></td></tr><tr><td style="font-weight:bold;vertical-align:top;">applications_parent</td><td style="vertical-align:top;">:</td><td><div>C:\\Users\\jmeno\\Desktop\\web2py</div></td></tr><tr><td style="font-weight:bold;vertical-align:top;">cmd_args</td><td style="vertical-align:top;">:</td><td><div><table></table></div></td></tr><tr><td style="font-weight:bold;vertical-align:top;">cmd_options</td><td style="vertical-align:top;">:</td><td><div>&lt;Values at 0x46953c8: {&#x27;verbose&#x27;: False, &#x27;ip&#x27;: &#x27;127.0.0.1&#x27;, &#x27;debuglevel&#x27;: 30, &#x27;with_scheduler&#x27;: False, &#x27;shutdown_timeout&#x27;: 5, &#x27;taskbar&#x27;: False, &#x27;with_coverage&#x27;: False, &#x27;pid_filename&#x27;: &#x27;httpserver.pid&#x27;, &#x27;maxthreads&#x27;: None, &#x27;softcron&#x27;: False, &#x27;server_name&#x27;: &#x27;LAPTOP-44Q4MK4V&#x27;, &#x27;bpython&#x27;: False, &#x27;nogui&#x27;: False, &#x27;port&#x27;: 8000, &#x27;print_errors&#x27;: True, &#x27;extcron&#x27;: False, &#x27;runcron&#x27;: False, &#x27;run_system_tests&#x27;: False, &#x27;test&#x27;: None, &#x27;folder&#x27;: &#x27;C:\\\\Users\\\\jmeno\\\\Desktop\\\\web2py&#x27;, &#x27;config&#x27;: &#x27;&#x27;, &#x27;minthreads&#x27;: None, &#x27;shell&#x27;: None, &#x27;run&#x27;: &#x27;&#x27;, &#x27;log_filename&#x27;: &#x27;httpserver.log&#x27;, &#x27;profiler_dir&#x27;: None, &#x27;args&#x27;: [&#x27;&#x27;], &#x27;socket_timeout&#x27;: 5, &#x27;ssl_ca_certificate&#x27;: None, &#x27;scheduler&#x27;: None, &#x27;interfaces&#x27;: None, &#x27;ssl_private_key&#x27;: &#x27;&#x27;, &#x27;gae&#x27;: None, &#x27;password&#x27;: &#x27;******&#x27;, &#x27;request_queue_size&#x27;: 5, &#x27;ssl_certificate&#x27;: &#x27;&#x27;, &#x27;cronjob&#x27;: False, &#x27;numthreads&#x27;: None, &#x27;quiet&#x27;: False, &#x27;import_models&#x27;: False, &#x27;timeout&#x27;: 10, &#x27;plain&#x27;: False, &#x27;nobanner&#x27;: False}&gt;</div></td></tr><tr><td style="font-weight:bold;vertical-align:top;">db_sessions</td><td style="vertical-align:top;">:</td><td><div>set([&#x27;cs183_budget&#x27;])</div></td></tr><tr><td style="font-weight:bold;vertical-align:top;">debugging</td><td style="vertical-align:top;">:</td><td><div>False</div></td></tr><tr><td style="font-weight:bold;vertical-align:top;">gluon_parent</td><td style="vertical-align:top;">:</td><td><div>C:\\Users\\jmeno\\Desktop\\web2py</div></td></tr><tr><td style="font-weight:bold;vertical-align:top;">http_accept</td><td style="vertical-align:top;">:</td><td><div>text/html,application/xhtml+xml,application/xml;q=0.9,image/webp,image/apng,*/*;q=0.8</div></td></tr><tr><td style="font-weight:bold;vertical-align:top;">http_accept_encoding</td><td style="vertical-align:top;">:</td><td><div>gzip, deflate, br</div></td></tr><tr><td style="font-weight:bold;vertical-align:top;">http_accept_language</td><td style="vertical-align:top;">:</td><td><div>en-US,en;q=0.9</div></td></tr><tr><td style="font-weight:bold;vertical-align:top;">http_connection</td><td style="vertical-align:top;">:</td><td><div>keep-alive</div></td></tr><tr><td style="font-weight:bold;vertical-align:top;">http_cookie</td><td style="vertical-align:top;">:</td><td><div>session_id_admin=127.0.0.1-d19b95b4-985d-4434-be56-b14186affeee; session_id_hw2=&quot;1:906f84a4-b67c-4fb5-968b-31e237d8bb78&quot;; session_id_cs183_budget=&quot;1:f179d26a-0338-434b-a7b1-ebf8b099809a&quot;; session_id_welcome=127.0.0.1-64dae72e-75a3-4e8b-aa7d-e9a176de868a</div></td></tr><tr><td style="font-weight:bold;vertical-align:top;">http_host</td><td style="vertical-align:top;">:</td><td><div>127.0.0.1:8000</div></td></tr><tr><td style="font-weight:bold;vertical-align:top;">http_referer</td><td style="vertical-align:top;">:</td><td><div>http://127.0.0.1:8000/admin/default/site</div></td></tr><tr><td style="font-weight:bold;vertical-align:top;">http_upgrade_insecure_requests</td><td style="vertical-align:top;">:</td><td><div>1</div></td></tr><tr><td style="font-weight:bold;vertical-align:top;">http_user_agent</td><td style="vertical-align:top;">:</td><td><div>Mozilla/5.0 (Windows NT 10.0; Win64; x64) AppleWebKit/537.36 (KHTML, like Gecko) Chrome/66.0.3359.181 Safari/537.36</div></td></tr><tr><td style="font-weight:bold;vertical-align:top;">is_jython</td><td style="vertical-align:top;">:</td><td><div>False</div></td></tr><tr><td style="font-weight:bold;vertical-align:top;">is_py2</td><td style="vertical-align:top;">:</td><td><div>True</div></td></tr><tr><td style="font-weight:bold;vertical-align:top;">is_pypy</td><td style="vertical-align:top;">:</td><td><div>False</div></td></tr><tr><td style="font-weight:bold;vertical-align:top;">is_source</td><td style="vertical-align:top;">:</td><td><div>True</div></td></tr><tr><td style="font-weight:bold;vertical-align:top;">local_hosts</td><td style="vertical-align:top;">:</td><td><div><table><tr><td><div>10.0.0.14</div></td></tr><tr><td><div>fe80::4c96:7bd5:fe48:eb53%12</div></td></tr><tr><td><div>2601:647:cd00:43:4c96:7bd5:fe48:eb53</div></td></tr><tr><td><div>2601:647:cd00:43:c507:c513:295:c223</div></td></tr><tr><td><div>::ffff:127.0.0.1</div></td></tr><tr><td><div>::1</div></td></tr><tr><td><div>LAPTOP-44Q4MK4V</div></td></tr><tr><td><div>LAPTOP-44Q4MK4V.hsd1.ca.comcast.net</div></td></tr><tr><td><div>2601:647:cd00:43::6bd2</div></td></tr><tr><td><div>127.0.0.1</div></td></tr></table></div></td></tr><tr><td style="font-weight:bold;vertical-align:top;">path_info</td><td style="vertical-align:top;">:</td><td><div>/cs183_budget/default/index</div></td></tr><tr><td style="font-weight:bold;vertical-align:top;">query_string</td><td style="vertical-align:top;">:</td><td><div></div></td></tr><tr><td style="font-weight:bold;vertical-align:top;">remote_addr</td><td style="vertical-align:top;">:</td><td><div>127.0.0.1</div></td></tr><tr><td style="font-weight:bold;vertical-align:top;">remote_port</td><td style="vertical-align:top;">:</td><td><div>53421</div></td></tr><tr><td style="font-weight:bold;vertical-align:top;">request_method</td><td style="vertical-align:top;">:</td><td><div>GET</div></td></tr><tr><td style="font-weight:bold;vertical-align:top;">request_uri</td><td style="vertical-align:top;">:</td><td><div>/cs183_budget/default/index</div></td></tr><tr><td style="font-weight:bold;vertical-align:top;">script_name</td><td style="vertical-align:top;">:</td><td><div></div></td></tr><tr><td style="font-weight:bold;vertical-align:top;">server_name</td><td style="vertical-align:top;">:</td><td><div>LAPTOP-44Q4MK4V</div></td></tr><tr><td style="font-weight:bold;vertical-align:top;">server_port</td><td style="vertical-align:top;">:</td><td><div>8000</div></td></tr><tr><td style="font-weight:bold;vertical-align:top;">server_protocol</td><td style="vertical-align:top;">:</td><td><div>HTTP/1.1</div></td></tr><tr><td style="font-weight:bold;vertical-align:top;">server_software</td><td style="vertical-align:top;">:</td><td><div>Rocket 1.2.6</div></td></tr><tr><td style="font-weight:bold;vertical-align:top;">web2py_path</td><td style="vertical-align:top;">:</td><td><div>C:\\Users\\jmeno\\Desktop\\web2py</div></td></tr><tr><td style="font-weight:bold;vertical-align:top;">web2py_version</td><td style="vertical-align:top;">:</td><td><div>2.16.1-stable+timestamp.2017.11.14.05.54.25</div></td></tr><tr><td style="font-weight:bold;vertical-align:top;">wsgi.errors</td><td style="vertical-align:top;">:</td><td><div>&lt;open file &#x27;&lt;stderr&gt;&#x27;, mode &#x27;w&#x27; at 0x0000000002D3B150&gt;</div></td></tr><tr><td style="font-weight:bold;vertical-align:top;">wsgi.file_wrapper</td><td style="vertical-align:top;">:</td><td><div>&lt;class wsgiref.util.FileWrapper at 0x000000000461E408&gt;</div></td></tr><tr><td style="font-weight:bold;vertical-align:top;">wsgi.input</td><td style="vertical-align:top;">:</td><td><div>&lt;socket._fileobject object at 0x0000000004E0F408&gt;</div></td></tr><tr><td style="font-weight:bold;vertical-align:top;">wsgi.multiprocess</td><td style="vertical-align:top;">:</td><td><div>False</div></td></tr><tr><td style="font-weight:bold;vertical-align:top;">wsgi.multithread</td><td style="vertical-align:top;">:</td><td><div>True</div></td></tr><tr><td style="font-weight:bold;vertical-align:top;">wsgi.run_once</td><td style="vertical-align:top;">:</td><td><div>False</div></td></tr><tr><td style="font-weight:bold;vertical-align:top;">wsgi.url_scheme</td><td style="vertical-align:top;">:</td><td><div>http</div></td></tr><tr><td style="font-weight:bold;vertical-align:top;">wsgi.version</td><td style="vertical-align:top;">:</td><td><div><table><tr><td><div>1</div></td></tr><tr><td><div>0</div></td></tr></table></div></td></tr><tr><td style="font-weight:bold;vertical-align:top;">wsgi_errors</td><td style="vertical-align:top;">:</td><td><div>&lt;open file &#x27;&lt;stderr&gt;&#x27;, mode &#x27;w&#x27; at 0x0000000002D3B150&gt;</div></td></tr><tr><td style="font-weight:bold;vertical-align:top;">wsgi_file_wrapper</td><td style="vertical-align:top;">:</td><td><div>&lt;class wsgiref.util.FileWrapper at 0x000000000461E408&gt;</div></td></tr><tr><td style="font-weight:bold;vertical-align:top;">wsgi_input</td><td style="vertical-align:top;">:</td><td><div>&lt;socket._fileobject object at 0x0000000004E0F408&gt;</div></td></tr><tr><td style="font-weight:bold;vertical-align:top;">wsgi_multiprocess</td><td style="vertical-align:top;">:</td><td><div>False</div></td></tr><tr><td style="font-weight:bold;vertical-align:top;">wsgi_multithread</td><td style="vertical-align:top;">:</td><td><div>True</div></td></tr><tr><td style="font-weight:bold;vertical-align:top;">wsgi_run_once</td><td style="vertical-align:top;">:</td><td><div>False</div></td></tr><tr><td style="font-weight:bold;vertical-align:top;">wsgi_url_scheme</td><td style="vertical-align:top;">:</td><td><div>http</div></td></tr><tr><td style="font-weight:bold;vertical-align:top;">wsgi_version</td><td style="vertical-align:top;">:</td><td><div><table><tr><td><div>1</div></td></tr><tr><td><div>0</div></td></tr></table></div></td></tr></table></div></td></tr><tr><td style="font-weight:bold;vertical-align:top;">extension</td><td style="vertical-align:top;">:</td><td><div>html</div></td></tr><tr><td style="font-weight:bold;vertical-align:top;">folder</td><td style="vertical-align:top;">:</td><td><div>C:\\Users\\jmeno\\Desktop\\web2py\\applications\\cs183_budget\\</div></td></tr><tr><td style="font-weight:bold;vertical-align:top;">function</td><td style="vertical-align:top;">:</td><td><div>index</div></td></tr><tr><td style="font-weight:bold;vertical-align:top;">global_settings</td><td style="vertical-align:top;">:</td><td><div><table><tr><td style="font-weight:bold;vertical-align:top;">app_folders</td><td style="vertical-align:top;">:</td><td><div>set([&#x27;C:\\\\Users\\\\jmeno\\\\Desktop\\\\web2py\\\\applications\\\\cs183_budget\\\\&#x27;, &#x27;C:\\\\Users\\\\jmeno\\\\Desktop\\\\web2py\\\\applications\\\\admin\\\\&#x27;, &#x27;C:\\\\Users\\\\jmeno\\\\Desktop\\\\web2py\\\\applications\\\\welcome\\\\&#x27;])</div></td></tr><tr><td style="font-weight:bold;vertical-align:top;">applications_parent</td><td style="vertical-align:top;">:</td><td><div>C:\\Users\\jmeno\\Desktop\\web2py</div></td></tr><tr><td style="font-weight:bold;vertical-align:top;">cmd_args</td><td style="vertical-align:top;">:</td><td><div><table></table></div></td></tr><tr><td style="font-weight:bold;vertical-align:top;">cmd_options</td><td style="vertical-align:top;">:</td><td><div>&lt;Values at 0x46953c8: {&#x27;verbose&#x27;: False, &#x27;ip&#x27;: &#x27;127.0.0.1&#x27;, &#x27;debuglevel&#x27;: 30, &#x27;with_scheduler&#x27;: False, &#x27;shutdown_timeout&#x27;: 5, &#x27;taskbar&#x27;: False, &#x27;with_coverage&#x27;: False, &#x27;pid_filename&#x27;: &#x27;httpserver.pid&#x27;, &#x27;maxthreads&#x27;: None, &#x27;softcron&#x27;: False, &#x27;server_name&#x27;: &#x27;LAPTOP-44Q4MK4V&#x27;, &#x27;bpython&#x27;: False, &#x27;nogui&#x27;: False, &#x27;port&#x27;: 8000, &#x27;print_errors&#x27;: True, &#x27;extcron&#x27;: False, &#x27;runcron&#x27;: False, &#x27;run_system_tests&#x27;: False, &#x27;test&#x27;: None, &#x27;folder&#x27;: &#x27;C:\\\\Users\\\\jmeno\\\\Desktop\\\\web2py&#x27;, &#x27;config&#x27;: &#x27;&#x27;, &#x27;minthreads&#x27;: None, &#x27;shell&#x27;: None, &#x27;run&#x27;: &#x27;&#x27;, &#x27;log_filename&#x27;: &#x27;httpserver.log&#x27;, &#x27;profiler_dir&#x27;: None, &#x27;args&#x27;: [&#x27;&#x27;], &#x27;socket_timeout&#x27;: 5, &#x27;ssl_ca_certificate&#x27;: None, &#x27;scheduler&#x27;: None, &#x27;interfaces&#x27;: None, &#x27;ssl_private_key&#x27;: &#x27;&#x27;, &#x27;gae&#x27;: None, &#x27;password&#x27;: &#x27;******&#x27;, &#x27;request_queue_size&#x27;: 5, &#x27;ssl_certificate&#x27;: &#x27;&#x27;, &#x27;cronjob&#x27;: False, &#x27;numthreads&#x27;: None, &#x27;quiet&#x27;: False, &#x27;import_models&#x27;: False, &#x27;timeout&#x27;: 10, &#x27;plain&#x27;: False, &#x27;nobanner&#x27;: False}&gt;</div></td></tr><tr><td style="font-weight:bold;vertical-align:top;">db_sessions</td><td style="vertical-align:top;">:</td><td><div>set([&#x27;cs183_budget&#x27;])</div></td></tr><tr><td style="font-weight:bold;vertical-align:top;">debugging</td><td style="vertical-align:top;">:</td><td><div>False</div></td></tr><tr><td style="font-weight:bold;vertical-align:top;">gluon_parent</td><td style="vertical-align:top;">:</td><td><div>C:\\Users\\jmeno\\Desktop\\web2py</div></td></tr><tr><td style="font-weight:bold;vertical-align:top;">is_jython</td><td style="vertical-align:top;">:</td><td><div>False</div></td></tr><tr><td style="font-weight:bold;vertical-align:top;">is_py2</td><td style="vertical-align:top;">:</td><td><div>True</div></td></tr><tr><td style="font-weight:bold;vertical-align:top;">is_pypy</td><td style="vertical-align:top;">:</td><td><div>False</div></td></tr><tr><td style="font-weight:bold;vertical-align:top;">is_source</td><td style="vertical-align:top;">:</td><td><div>True</div></td></tr><tr><td style="font-weight:bold;vertical-align:top;">local_hosts</td><td style="vertical-align:top;">:</td><td><div><table><tr><td><div>10.0.0.14</div></td></tr><tr><td><div>fe80::4c96:7bd5:fe48:eb53%12</div></td></tr><tr><td><div>2601:647:cd00:43:4c96:7bd5:fe48:eb53</div></td></tr><tr><td><div>2601:647:cd00:43:c507:c513:295:c223</div></td></tr><tr><td><div>::ffff:127.0.0.1</div></td></tr><tr><td><div>::1</div></td></tr><tr><td><div>LAPTOP-44Q4MK4V</div></td></tr><tr><td><div>LAPTOP-44Q4MK4V.hsd1.ca.comcast.net</div></td></tr><tr><td><div>2601:647:cd00:43::6bd2</div></td></tr><tr><td><div>127.0.0.1</div></td></tr></table></div></td></tr><tr><td style="font-weight:bold;vertical-align:top;">web2py_version</td><td style="vertical-align:top;">:</td><td><div>2.16.1-stable+timestamp.2017.11.14.05.54.25</div></td></tr></table></div></td></tr><tr><td style="font-weight:bold;vertical-align:top;">is_https</td><td style="vertical-align:top;">:</td><td><div>False</div></td></tr><tr><td style="font-weight:bold;vertical-align:top;">is_local</td><td style="vertical-align:top;">:</td><td><div>True</div></td></tr><tr><td style="font-weight:bold;vertical-align:top;">is_restful</td><td style="vertical-align:top;">:</td><td><div>False</div></td></tr><tr><td style="font-weight:bold;vertical-align:top;">is_scheduler</td><td style="vertical-align:top;">:</td><td><div>False</div></td></tr><tr><td style="font-weight:bold;vertical-align:top;">is_shell</td><td style="vertical-align:top;">:</td><td><div>False</div></td></tr><tr><td style="font-weight:bold;vertical-align:top;">now</td><td style="vertical-align:top;">:</td><td><div>datetime.datetime(2018, 5, 23, 15, 45, 4, 611000)</div></td></tr><tr><td style="font-weight:bold;vertical-align:top;">raw_args</td><td style="vertical-align:top;">:</td><td><div></div></td></tr><tr><td style="font-weight:bold;vertical-align:top;">raw_extension</td><td style="vertical-align:top;">:</td><td><div>None</div></td></tr><tr><td style="font-weight:bold;vertical-align:top;">url</td><td style="vertical-align:top;">:</td><td><div>/cs183_budget/default/index</div></td></tr><tr><td style="font-weight:bold;vertical-align:top;">utcnow</td><td style="vertical-align:top;">:</td><td><div>datetime.datetime(2018, 5, 23, 22, 45, 4, 611000)</div></td></tr><tr><td style="font-weight:bold;vertical-align:top;">wsgi</td><td style="vertical-align:top;">:</td><td><div>&lt;gluon.main.LazyWSGI object at 0x0000000004E15470&gt;</div></td></tr></table></div>'
tRp64
sS'frames'
p65
(lp66
(dp67
S'file'
p68
S'C:\\Users\\jmeno\\Desktop\\web2py\\gluon\\restricted.py'
p69
sS'dump'
p70
(dp71
S'environment'
p72
S"{'A': <class 'gluon.html.A'>, 'ANY_OF': <class 'gluon.validators.ANY_OF'>, 'ASSIGNJS': <function ASSIGNJS>, 'AppConfig': <function AppConfig>, 'B': <class 'gluon.html.B'>, 'BEAUTIFY': <class 'gluon.html.BEAUTIFY'>, 'BODY': <class 'gluon.html.BODY'>, 'BR': <class 'gluon.html.BR'>, 'BUTTON': <class 'gluon.html.BUTTON'>, 'CAT': <class 'gluon.html.CAT'>, ...}"
p73
sS'ccode'
p74
S'<code object <module> at 0000000003FDFEB0, file ...\\applications\\cs183_budget\\models\\db.py", line 6>'
p75
ssS'lnum'
p76
I219
sS'lines'
p77
(dp78
I214
S'    if environment is None:'
p79
sI215
S'        environment = {}'
p80
sI216
S"    environment['__file__'] = layer"
p81
sI217
S"    environment['__name__'] = '__restricted__'"
p82
sI218
S'    try:'
p83
sI219
S'        exec(ccode, environment)'
p84
sI220
S'    except HTTP:'
p85
sI221
S'        raise'
p86
sI222
S'    except RestrictedError:'
p87
sI223
S'        # do not encapsulate (obfuscate) the original RestrictedError'
p88
ssS'call'
p89
S'(ccode=<code object <module> at 0000000003FDFEB0, file ...\\applications\\cs183_budget\\models\\db.py", line 6>, environment={\'A\': <class \'gluon.html.A\'>, \'ANY_OF\': <class \'gluon.validators.ANY_OF\'>, \'ASSIGNJS\': <function ASSIGNJS>, \'AppConfig\': <function AppConfig>, \'B\': <class \'gluon.html.B\'>, \'BEAUTIFY\': <class \'gluon.html.BEAUTIFY\'>, \'BODY\': <class \'gluon.html.BODY\'>, \'BR\': <class \'gluon.html.BR\'>, \'BUTTON\': <class \'gluon.html.BUTTON\'>, \'CAT\': <class \'gluon.html.CAT\'>, ...}, layer=r\'C:\\Users\\jmeno\\Desktop\\web2py\\applications\\cs183_budget\\models\\db.py\', scode=<code object <module> at 0000000003FDFEB0, file ...\\applications\\cs183_budget\\models\\db.py", line 6>)'
p90
sS'func'
p91
S'restricted'
p92
sa(dp93
g68
S'C:\\Users\\jmeno\\Desktop\\web2py\\applications\\cs183_budget\\models\\db.py'
p94
sg70
(dp95
S'db'
p96
S'<DAL uri="sqlite://storage.sqlite">'
p97
sS'session.connect'
p98
S'<bound method Session.connect of <Storage {}>>'
p99
sS'session'
p100
S'<Storage {}>'
p101
sS'request'
p102
S"<Storage {'_vars': None, 'function': 'index', 'c...\\Desktop\\\\web2py\\\\applications\\\\cs183_budget\\\\'}>"
p103
sS'response'
p104
S"<Storage {'body': <cStringIO.StringO object at 0...y, session_data)>, 'view': 'default/index.html'}>"
p105
ssg76
I26
sg77
(dp106
I21
S"    db = DAL(myconf.get('db.uri'),"
p107
sI22
S"             pool_size=myconf.get('db.pool_size'),"
p108
sI23
S"             migrate_enabled=myconf.get('db.migrate'),"
p109
sI24
S"             check_reserved=['all'])"
p110
sI25
S'    # I like to keep the session in the db.'
p111
sI26
S'    session.connect(request, response, db=db)'
p112
sI27
S'else:'
p113
sI28
S"    # connect to Google BigTable (optional 'google:datastore://namespace')"
p114
sI29
S"    db = DAL('google:datastore+ndb')"
p115
sI30
S'    # store sessions and tickets there'
p116
ssg89
S'()'
p117
sg91
S'<module>'
p118
sa(dp119
g68
S'C:\\Users\\jmeno\\Desktop\\web2py\\gluon\\globals.py'
p120
sg70
(dp121
S'record_id'
p122
S'1L'
p123
sS'table'
p124
S'<Table web2py_session_cs183_budget (id, locked, ...me, modified_datetime, unique_key, session_data)>'
p125
sS'unique_key'
p126
S"'f179d26a-0338-434b-a7b1-ebf8b099809a'"
p127
sS'row'
p128
S'undefined'
p129
ssg76
I965
sg77
(dp130
I960
S'                except (TypeError, ValueError):'
p131
sI961
S'                    record_id = None'
p132
sI962
S''
sI963
S'                # Select from database'
p133
sI964
S'                if record_id:'
p134
sI965
S'                    row = table(record_id, unique_key=unique_key)'
p135
sI966
S'                    # Make sure the session data exists in the database'
p136
sI967
S'                    if row:'
p137
sI968
S'                        # rows[0].update_record(locked=True)'
p138
sI969
S'                        # Unpickle the data'
p139
ssg89
S'(self=<Storage {}>, request=<Storage {\'_vars\': None, \'function\': \'index\', \'c...\\Desktop\\\\web2py\\\\applications\\\\cs183_budget\\\\\'}>, response=<Storage {\'body\': <cStringIO.StringO object at 0...y, session_data)>, \'view\': \'default/index.html\'}>, db=<DAL uri="sqlite://storage.sqlite">, tablename=\'web2py_session\', masterapp=\'cs183_budget\', migrate=True, separate=None, check_client=False, cookie_key=None, cookie_expires=None, compression_level=None)'
p140
sg91
S'connect'
p141
sa(dp142
g68
S'C:\\Users\\jmeno\\Desktop\\web2py\\gluon\\packages\\dal\\pydal\\objects.py'
p143
sg70
(dp144
S'orderby_on_limitby'
p145
g129
sS').first'
p146
g129
sS'builtinFalse'
p147
S'False'
p148
ssg76
I573
sg77
(dp149
I576
S'                    if record[k] != v:'
p150
sI577
S'                        return None'
p151
sI568
S'            else:'
p152
sI569
S'                record = self._db(self._id == key).select('
p153
sI570
S'                    limitby=(0, 1),'
p154
sI571
S'                    for_update=for_update,'
p155
sI572
S'                    orderby=orderby,'
p156
sI573
S'                    orderby_on_limitby=False).first()'
p157
sI574
S'            if record:'
p158
sI575
S'                for k, v in iteritems(kwargs):'
p159
ssg89
S"(self=<Table web2py_session_cs183_budget (id, locked, ...me, modified_datetime, unique_key, session_data)>, key=1L, **kwargs={'unique_key': 'f179d26a-0338-434b-a7b1-ebf8b099809a'})"
p160
sg91
S'__call__'
p161
sa(dp162
g68
S'C:\\Users\\jmeno\\Desktop\\web2py\\gluon\\packages\\dal\\pydal\\objects.py'
p163
sg70
(dp164
S'self.query'
p165
S'<Query ("web2py_session_cs183_budget"."id" = 1)>'
p166
sS'adapter.select'
p167
S'<bound method SQLite.select of <pydal.adapters.sqlite.SQLite object>>'
p168
sS'fields'
p169
S'[<pydal.objects.Field object>, <pydal.objects.Field object>, <pydal.objects.Field object>, <pydal.objects.Field object>, <pydal.objects.Field object>, <pydal.objects.Field object>, <pydal.objects.Field object>]'
p170
sS'adapter'
p171
S'<pydal.adapters.sqlite.SQLite object>'
p172
sS'attributes'
p173
S"{'for_update': False, 'limitby': (0, 1), 'orderby': None, 'orderby_on_limitby': False}"
p174
sS'self'
p175
S'<Set ("web2py_session_cs183_budget"."id" = 1)>'
p176
ssg76
I2250
sg77
(dp177
I2245
S"                                    attributes.get('join', None),"
p178
sI2246
S"                                    attributes.get('left', None),"
p179
sI2247
S"                                    attributes.get('orderby', None),"
p180
sI2248
S"                                    attributes.get('groupby', None))"
p181
sI2249
S'        fields = adapter.expand_all(fields, tablenames)'
p182
sI2250
S'        return adapter.select(self.query, fields, attributes)'
p183
sI2251
S''
sI2252
S'    def iterselect(self, *fields, **attributes):'
p184
sI2253
S'        adapter = self.db._adapter'
p185
sI2254
S'        tablenames = adapter.tables(self.query,'
p186
ssg89
S'(self=<Set ("web2py_session_cs183_budget"."id" = 1)>, *fields=[<pydal.objects.Field object>, <pydal.objects.Field object>, <pydal.objects.Field object>, <pydal.objects.Field object>, <pydal.objects.Field object>, <pydal.objects.Field object>, <pydal.objects.Field object>], **attributes={\'for_update\': False, \'limitby\': (0, 1), \'orderby\': None, \'orderby_on_limitby\': False})'
p187
sg91
S'select'
p188
sa(dp189
g68
S'C:\\Users\\jmeno\\Desktop\\web2py\\gluon\\packages\\dal\\pydal\\adapters\\sqlite.py'
p190
sg70
(dp191
S'fields'
p192
S'[<pydal.objects.Field object>, <pydal.objects.Field object>, <pydal.objects.Field object>, <pydal.objects.Field object>, <pydal.objects.Field object>, <pydal.objects.Field object>, <pydal.objects.Field object>]'
p193
sS'self'
p194
S'<pydal.adapters.sqlite.SQLite object>'
p195
sS').select'
p196
S'<bound method SQLite.select of <pydal.adapters.sqlite.SQLite object>>'
p197
sS'attributes'
p198
S"{'for_update': False, 'limitby': (0, 1), 'orderby': None, 'orderby_on_limitby': False}"
p199
sS'query'
p200
S'<Query ("web2py_session_cs183_budget"."id" = 1)>'
p201
sS'builtinsuper'
p202
S"<type 'super'>"
p203
sS'global SQLite'
p204
S"<class 'pydal.adapters.sqlite.SQLite'>"
p205
ssg76
I82
sg77
(dp206
I77
S"            self.execute('PRAGMA foreign_keys=ON;')"
p207
sI78
S''
sI79
S'    def select(self, query, fields, attributes):'
p208
sI80
S"        if attributes.get('for_update', False) and 'cache' not in attributes:"
p209
sI81
S"            self.execute('BEGIN IMMEDIATE TRANSACTION;')"
p210
sI82
S'        return super(SQLite, self).select(query, fields, attributes)'
p211
sI83
S''
sI84
S'    def delete(self, table, query):'
p212
sI85
S'        db = self.db'
p213
sI86
S'        deleted = [x[table._id.name] for x in db(query).select(table._id)]'
p214
ssg89
S'(self=<pydal.adapters.sqlite.SQLite object>, query=<Query ("web2py_session_cs183_budget"."id" = 1)>, fields=[<pydal.objects.Field object>, <pydal.objects.Field object>, <pydal.objects.Field object>, <pydal.objects.Field object>, <pydal.objects.Field object>, <pydal.objects.Field object>, <pydal.objects.Field object>], attributes={\'for_update\': False, \'limitby\': (0, 1), \'orderby\': None, \'orderby_on_limitby\': False})'
p215
sg91
g188
sa(dp216
g68
S'C:\\Users\\jmeno\\Desktop\\web2py\\gluon\\packages\\dal\\pydal\\adapters\\base.py'
p217
sg70
(dp218
S'self._select_aux'
p219
S'<bound method SQLite._select_aux of <pydal.adapters.sqlite.SQLite object>>'
p220
sS'fields'
p221
S'[<pydal.objects.Field object>, <pydal.objects.Field object>, <pydal.objects.Field object>, <pydal.objects.Field object>, <pydal.objects.Field object>, <pydal.objects.Field object>, <pydal.objects.Field object>]'
p222
sS'self'
p223
S'<pydal.adapters.sqlite.SQLite object>'
p224
sS'sql'
p225
S'\'SELECT "web2py_session_cs183_budget"."id", "web2...session_cs183_budget"."id" = 1) LIMIT 1 OFFSET 0;\''
p226
sS'attributes'
p227
S"{'for_update': False, 'limitby': (0, 1), 'orderby': None, 'orderby_on_limitby': False}"
p228
sS'colnames'
p229
S"['web2py_session_cs183_budget.id', 'web2py_session_cs183_budget.locked', 'web2py_session_cs183_budget.client_ip', 'web2py_session_cs183_budget.created_datetime', 'web2py_session_cs183_budget.modified_datetime', 'web2py_session_cs183_budget.unique_key', 'web2py_session_cs183_budget.session_data']"
p230
ssg76
I762
sg77
(dp231
I757
S'        colnames, sql = self._select_wcols(query, fields, **attributes)'
p232
sI758
S"        cache = attributes.get('cache', None)"
p233
sI759
S"        if cache and attributes.get('cacheable', False):"
p234
sI760
S'            return self._cached_select('
p235
sI761
S'                cache, sql, fields, attributes, colnames)'
p236
sI762
S'        return self._select_aux(sql, fields, attributes, colnames)'
p237
sI763
S''
sI764
S'    def iterselect(self, query, fields, attributes):'
p238
sI765
S'        colnames, sql = self._select_wcols(query, fields, **attributes)'
p239
sI766
S"        cacheable = attributes.get('cacheable', False)"
p240
ssg89
S'(self=<pydal.adapters.sqlite.SQLite object>, query=<Query ("web2py_session_cs183_budget"."id" = 1)>, fields=[<pydal.objects.Field object>, <pydal.objects.Field object>, <pydal.objects.Field object>, <pydal.objects.Field object>, <pydal.objects.Field object>, <pydal.objects.Field object>, <pydal.objects.Field object>], attributes={\'for_update\': False, \'limitby\': (0, 1), \'orderby\': None, \'orderby_on_limitby\': False})'
p241
sg91
g188
sa(dp242
g68
S'C:\\Users\\jmeno\\Desktop\\web2py\\gluon\\packages\\dal\\pydal\\adapters\\base.py'
p243
sg70
(dp244
S'self'
p245
S'<pydal.adapters.sqlite.SQLite object>'
p246
sS'rows'
p247
g129
sS'self._select_aux_execute'
p248
S'<bound method SQLite._select_aux_execute of <pydal.adapters.sqlite.SQLite object>>'
p249
sS'sql'
p250
S'\'SELECT "web2py_session_cs183_budget"."id", "web2...session_cs183_budget"."id" = 1) LIMIT 1 OFFSET 0;\''
p251
ssg76
I718
sg77
(dp252
I713
S'        return self.cursor.fetchall()'
p253
sI714
S''
sI715
S'    def _select_aux(self, sql, fields, attributes, colnames):'
p254
sI716
S"        cache = attributes.get('cache', None)"
p255
sI717
S'        if not cache:'
p256
sI718
S'            rows = self._select_aux_execute(sql)'
p257
sI719
S'        else:'
p258
sI720
S'            if isinstance(cache, dict):'
p259
sI721
S"                cache_model = cache['model']"
p260
sI722
S"                time_expire = cache['expiration']"
p261
ssg89
S'(self=<pydal.adapters.sqlite.SQLite object>, sql=\'SELECT "web2py_session_cs183_budget"."id", "web2...session_cs183_budget"."id" = 1) LIMIT 1 OFFSET 0;\', fields=[<pydal.objects.Field object>, <pydal.objects.Field object>, <pydal.objects.Field object>, <pydal.objects.Field object>, <pydal.objects.Field object>, <pydal.objects.Field object>, <pydal.objects.Field object>], attributes={\'for_update\': False, \'limitby\': (0, 1), \'orderby\': None, \'orderby_on_limitby\': False}, colnames=[\'web2py_session_cs183_budget.id\', \'web2py_session_cs183_budget.locked\', \'web2py_session_cs183_budget.client_ip\', \'web2py_session_cs183_budget.created_datetime\', \'web2py_session_cs183_budget.modified_datetime\', \'web2py_session_cs183_budget.unique_key\', \'web2py_session_cs183_budget.session_data\'])'
p262
sg91
S'_select_aux'
p263
sa(dp264
g68
S'C:\\Users\\jmeno\\Desktop\\web2py\\gluon\\packages\\dal\\pydal\\adapters\\base.py'
p265
sg70
(dp266
S'self'
p267
S'<pydal.adapters.sqlite.SQLite object>'
p268
sS'self.execute'
p269
S'<bound method SQLite.wrap of <pydal.adapters.sqlite.SQLite object>>'
p270
sS'sql'
p271
S'\'SELECT "web2py_session_cs183_budget"."id", "web2...session_cs183_budget"."id" = 1) LIMIT 1 OFFSET 0;\''
p272
ssg76
I712
sg77
(dp273
I707
S''
sI708
S'    def nested_select(self, query, fields, attributes):'
p274
sI709
S'        return Select(self.db, query, fields, attributes)'
p275
sI710
S''
sI711
S'    def _select_aux_execute(self, sql):'
p276
sI712
S'        self.execute(sql)'
p277
sI713
S'        return self.cursor.fetchall()'
p278
sI714
S''
sI715
S'    def _select_aux(self, sql, fields, attributes, colnames):'
p279
sI716
S"        cache = attributes.get('cache', None)"
p280
ssg89
S'(self=<pydal.adapters.sqlite.SQLite object>, sql=\'SELECT "web2py_session_cs183_budget"."id", "web2...session_cs183_budget"."id" = 1) LIMIT 1 OFFSET 0;\')'
p281
sg91
S'_select_aux_execute'
p282
sa(dp283
g68
S'C:\\Users\\jmeno\\Desktop\\web2py\\gluon\\packages\\dal\\pydal\\adapters\\__init__.py'
p284
sg70
(dp285
S'kwargs'
p286
g21
sS'args'
p287
S'(<pydal.adapters.sqlite.SQLite object>, \'SELECT "web2py_session_cs183_budget"."id", "web2...session_cs183_budget"."id" = 1) LIMIT 1 OFFSET 0;\')'
p288
sS'f'
S'<function execute>'
p289
ssg76
I67
sg77
(dp290
I64
S'            if len(args) > 1:'
p291
sI65
S'                raise ValueError(args[1])'
p292
sI66
S"            raise RuntimeError('no connection available')"
p293
sI67
S'        return f(*args, **kwargs)'
p294
sI68
S'    return wrap'
p295
sI69
S''
sI70
S''
sI71
S'from .base import SQLAdapter, NoSQLAdapter'
p296
sI62
S'    def wrap(*args, **kwargs):'
p297
sI63
S'        if not args[0].connection:'
p298
ssg89
S'(*args=(<pydal.adapters.sqlite.SQLite object>, \'SELECT "web2py_session_cs183_budget"."id", "web2...session_cs183_budget"."id" = 1) LIMIT 1 OFFSET 0;\'), **kwargs={})'
p299
sg91
S'wrap'
p300
sa(dp301
g68
S'C:\\Users\\jmeno\\Desktop\\web2py\\gluon\\packages\\dal\\pydal\\adapters\\base.py'
p302
sg70
(dp303
S'rv'
p304
g129
sS'self'
p305
S'<pydal.adapters.sqlite.SQLite object>'
p306
sS'args'
p307
S'(\'SELECT "web2py_session_cs183_budget"."id", "web2...session_cs183_budget"."id" = 1) LIMIT 1 OFFSET 0;\',)'
p308
sS'self.cursor'
p309
S'<sqlite3.Cursor object>'
p310
sS'command'
p311
S'\'SELECT "web2py_session_cs183_budget"."id", "web2...session_cs183_budget"."id" = 1) LIMIT 1 OFFSET 0;\''
p312
sS'self.cursor.execute'
p313
S'<built-in method execute of sqlite3.Cursor object>'
p314
sS'kwargs'
p315
g21
ssg76
I412
sg77
(dp316
I416
S''
sI407
S'    def execute(self, *args, **kwargs):'
p317
sI408
S'        command = self.filter_sql_command(args[0])'
p318
sI409
S'        handlers = self._build_handlers_for_execution()'
p319
sI410
S'        for handler in handlers:'
p320
sI411
S'            handler.before_execute(command)'
p321
sI412
S'        rv = self.cursor.execute(command, *args[1:], **kwargs)'
p322
sI413
S'        for handler in handlers:'
p323
sI414
S'            handler.after_execute(command)'
p324
sI415
S'        return rv'
p325
ssg89
S'(self=<pydal.adapters.sqlite.SQLite object>, *args=(\'SELECT "web2py_session_cs183_budget"."id", "web2...session_cs183_budget"."id" = 1) LIMIT 1 OFFSET 0;\',), **kwargs={})'
p326
sg91
S'execute'
p327
sasS'pyver'
p328
S'Python 2.7.14: C:\\Users\\jmeno\\Anaconda2\\python.exe (prefix: C:\\Users\\jmeno\\Anaconda2)'
p329
sS'session'
p330
g63
(S's\x1a\x00\x00\x00<div><table></table></div>'
tRp331
sS'etype'
p332
S"<class 'sqlite3.OperationalError'>"
p333
sS'date'
p334
S'Wed May 23 15:45:04 2018'
p335
sS'response'
p336
g63
(S'sO\x17\x00\x00<div><table><tr><td style="font-weight:bold;vertical-align:top;">body</td><td style="vertical-align:top;">:</td><td><div>&lt;cStringIO.StringO object at 0x0000000004E15068&gt;</div></td></tr><tr><td style="font-weight:bold;vertical-align:top;">cookies</td><td style="vertical-align:top;">:</td><td><div><table><tr><td style="font-weight:bold;vertical-align:top;">session_id_cs183_budget</td><td style="vertical-align:top;">:</td><td><div>127.0.0.1-2bdd213f-05c6-4653-b76c-cc951ecd4a5f<table><tr><td style="font-weight:bold;vertical-align:top;">comment</td><td style="vertical-align:top;">:</td><td><div></div></td></tr><tr><td style="font-weight:bold;vertical-align:top;">domain</td><td style="vertical-align:top;">:</td><td><div></div></td></tr><tr><td style="font-weight:bold;vertical-align:top;">expires</td><td style="vertical-align:top;">:</td><td><div></div></td></tr><tr><td style="font-weight:bold;vertical-align:top;">httponly</td><td style="vertical-align:top;">:</td><td><div></div></td></tr><tr><td style="font-weight:bold;vertical-align:top;">max-age</td><td style="vertical-align:top;">:</td><td><div></div></td></tr><tr><td style="font-weight:bold;vertical-align:top;">path</td><td style="vertical-align:top;">:</td><td><div>/</div></td></tr><tr><td style="font-weight:bold;vertical-align:top;">secure</td><td style="vertical-align:top;">:</td><td><div></div></td></tr><tr><td style="font-weight:bold;vertical-align:top;">version</td><td style="vertical-align:top;">:</td><td><div></div></td></tr></table></div></td></tr></table></div></td></tr><tr><td style="font-weight:bold;vertical-align:top;">delimiters</td><td style="vertical-align:top;">:</td><td><div><table><tr><td><div>{{</div></td></tr><tr><td><div>}}</div></td></tr></table></div></td></tr><tr><td style="font-weight:bold;vertical-align:top;">files</td><td style="vertical-align:top;">:</td><td><div><table></table></div></td></tr><tr><td style="font-weight:bold;vertical-align:top;">flash</td><td style="vertical-align:top;">:</td><td><div></div></td></tr><tr><td style="font-weight:bold;vertical-align:top;">form_label_separator</td><td style="vertical-align:top;">:</td><td><div>: </div></td></tr><tr><td style="font-weight:bold;vertical-align:top;">formstyle</td><td style="vertical-align:top;">:</td><td><div>table3cols</div></td></tr><tr><td style="font-weight:bold;vertical-align:top;">generic_patterns</td><td style="vertical-align:top;">:</td><td><div><table><tr><td><div>*</div></td></tr></table></div></td></tr><tr><td style="font-weight:bold;vertical-align:top;">headers</td><td style="vertical-align:top;">:</td><td><div><table><tr><td style="font-weight:bold;vertical-align:top;">X-Powered-By</td><td style="vertical-align:top;">:</td><td><div>web2py</div></td></tr></table></div></td></tr><tr><td style="font-weight:bold;vertical-align:top;">menu</td><td style="vertical-align:top;">:</td><td><div><table></table></div></td></tr><tr><td style="font-weight:bold;vertical-align:top;">meta</td><td style="vertical-align:top;">:</td><td><div><table></table></div></td></tr><tr><td style="font-weight:bold;vertical-align:top;">models_to_run</td><td style="vertical-align:top;">:</td><td><div><table><tr><td><div>^\\w+\\.py$</div></td></tr><tr><td><div>^default/\\w+\\.py$</div></td></tr><tr><td><div>^default/index/\\w+\\.py$</div></td></tr></table></div></td></tr><tr><td style="font-weight:bold;vertical-align:top;">postprocessing</td><td style="vertical-align:top;">:</td><td><div><table></table></div></td></tr><tr><td style="font-weight:bold;vertical-align:top;">session_client</td><td style="vertical-align:top;">:</td><td><div>127.0.0.1</div></td></tr><tr><td style="font-weight:bold;vertical-align:top;">session_cookie_compression_level</td><td style="vertical-align:top;">:</td><td><div>None</div></td></tr><tr><td style="font-weight:bold;vertical-align:top;">session_cookie_expires</td><td style="vertical-align:top;">:</td><td><div>None</div></td></tr><tr><td style="font-weight:bold;vertical-align:top;">session_data_name</td><td style="vertical-align:top;">:</td><td><div>session_data_cs183_budget</div></td></tr><tr><td style="font-weight:bold;vertical-align:top;">session_db_table</td><td style="vertical-align:top;">:</td><td><div>&lt;Table web2py_session_cs183_budget (id, locked, client_ip, created_datetime, modified_datetime, unique_key, session_data)&gt;</div></td></tr><tr><td style="font-weight:bold;vertical-align:top;">session_file</td><td style="vertical-align:top;">:</td><td><div>None</div></td></tr><tr><td style="font-weight:bold;vertical-align:top;">session_filename</td><td style="vertical-align:top;">:</td><td><div>C:\\Users\\jmeno\\Desktop\\web2py\\applications\\cs183_budget\\sessions\\127.0.0.1-2bdd213f-05c6-4653-b76c-cc951ecd4a5f</div></td></tr><tr><td style="font-weight:bold;vertical-align:top;">session_hash</td><td style="vertical-align:top;">:</td><td><div>c0762cbf4baf7f9af97c051e7fcb8083</div></td></tr><tr><td style="font-weight:bold;vertical-align:top;">session_id</td><td style="vertical-align:top;">:</td><td><div>1:f179d26a-0338-434b-a7b1-ebf8b099809a</div></td></tr><tr><td style="font-weight:bold;vertical-align:top;">session_id_name</td><td style="vertical-align:top;">:</td><td><div>session_id_cs183_budget</div></td></tr><tr><td style="font-weight:bold;vertical-align:top;">session_masterapp</td><td style="vertical-align:top;">:</td><td><div>cs183_budget</div></td></tr><tr><td style="font-weight:bold;vertical-align:top;">session_new</td><td style="vertical-align:top;">:</td><td><div>True</div></td></tr><tr><td style="font-weight:bold;vertical-align:top;">session_storage_type</td><td style="vertical-align:top;">:</td><td><div>db</div></td></tr><tr><td style="font-weight:bold;vertical-align:top;">status</td><td style="vertical-align:top;">:</td><td><div>200</div></td></tr><tr><td style="font-weight:bold;vertical-align:top;">view</td><td style="vertical-align:top;">:</td><td><div>default/index.html</div></td></tr></table></div>'
tRp337
sS'locals'
p338
(dp339
S'handlers'
p340
S'[<pydal.helpers.classes.TimingHandler object>]'
p341
sS'self'
p342
S'<pydal.adapters.sqlite.SQLite object>'
p343
sg48
S'(\'SELECT "web2py_session_cs183_budget"."id", "web2...session_cs183_budget"."id" = 1) LIMIT 1 OFFSET 0;\',)'
p344
sS'handler'
p345
S'<pydal.helpers.classes.TimingHandler object>'
p346
sS'command'
p347
S'\'SELECT "web2py_session_cs183_budget"."id", "web2...session_cs183_budget"."id" = 1) LIMIT 1 OFFSET 0;\''
p348
sS'kwargs'
p349
g21
sssS'traceback'
p350
S'Traceback (most recent call last):\n  File "C:\\Users\\jmeno\\Desktop\\web2py\\gluon\\restricted.py", line 219, in restricted\n    exec(ccode, environment)\n  File "C:\\Users\\jmeno\\Desktop\\web2py\\applications\\cs183_budget\\models\\db.py", line 26, in <module>\n    session.connect(request, response, db=db)\n  File "C:\\Users\\jmeno\\Desktop\\web2py\\gluon\\globals.py", line 965, in connect\n    row = table(record_id, unique_key=unique_key)\n  File "C:\\Users\\jmeno\\Desktop\\web2py\\gluon\\packages\\dal\\pydal\\objects.py", line 573, in __call__\n    orderby_on_limitby=False).first()\n  File "C:\\Users\\jmeno\\Desktop\\web2py\\gluon\\packages\\dal\\pydal\\objects.py", line 2250, in select\n    return adapter.select(self.query, fields, attributes)\n  File "C:\\Users\\jmeno\\Desktop\\web2py\\gluon\\packages\\dal\\pydal\\adapters\\sqlite.py", line 82, in select\n    return super(SQLite, self).select(query, fields, attributes)\n  File "C:\\Users\\jmeno\\Desktop\\web2py\\gluon\\packages\\dal\\pydal\\adapters\\base.py", line 762, in select\n    return self._select_aux(sql, fields, attributes, colnames)\n  File "C:\\Users\\jmeno\\Desktop\\web2py\\gluon\\packages\\dal\\pydal\\adapters\\base.py", line 718, in _select_aux\n    rows = self._select_aux_execute(sql)\n  File "C:\\Users\\jmeno\\Desktop\\web2py\\gluon\\packages\\dal\\pydal\\adapters\\base.py", line 712, in _select_aux_execute\n    self.execute(sql)\n  File "C:\\Users\\jmeno\\Desktop\\web2py\\gluon\\packages\\dal\\pydal\\adapters\\__init__.py", line 67, in wrap\n    return f(*args, **kwargs)\n  File "C:\\Users\\jmeno\\Desktop\\web2py\\gluon\\packages\\dal\\pydal\\adapters\\base.py", line 412, in execute\n    rv = self.cursor.execute(command, *args[1:], **kwargs)\nOperationalError: no such table: web2py_session_cs183_budget\n'
p351
s.